(lp1
ccopy_reg
_reconstructor
p2
(ctask
RegressionTask
p3
c__builtin__
object
p4
NtRp5
(dp6
S'examples'
p7
(lp8
(((lp9
I5
aI13
at(lp10
I7
aI15
atp11
a(((lp12
I15
aI9
aI13
aI10
aI14
aI14
aI4
at(lp13
I17
aI11
aI15
aI12
aI16
aI16
aI6
atp14
a(((lp15
I1
aI10
aI0
aI16
at(lp16
I3
aI12
aI2
aI18
atp17
a(((lp18
I6
at(lp19
I8
atp20
a(((lp21
I4
aI11
aI2
aI11
aI15
at(lp22
I6
aI13
aI4
aI13
aI17
atp23
a(((lp24
I4
aI3
aI1
aI0
aI3
aI7
aI9
at(lp25
I6
aI5
aI3
aI2
aI5
aI9
aI11
atp26
a(((lp27
I15
aI0
aI0
aI1
at(lp28
I17
aI2
aI2
aI3
atp29
a(((lt(ltp30
a(((lp31
I6
aI16
aI8
aI3
aI5
at(lp32
I8
aI18
aI10
aI5
aI7
atp33
a(((lp34
I6
aI11
aI16
aI7
aI8
aI10
at(lp35
I8
aI13
aI18
aI9
aI10
aI12
atp36
asS'cache'
p37
I00
sS'request'
p38
g2
(ctype
TypeConstructor
p39
g4
NtRp40
(dp41
S'isPolymorphic'
p42
I00
sS'name'
p43
S'->'
p44
sS'arguments'
p45
(lp46
g2
(g39
g4
NtRp47
(dp48
g42
I00
sg43
S'list'
p49
sg45
(lp50
g2
(g39
g4
NtRp51
(dp52
g42
I00
sg43
S'int'
p53
sg45
(lp54
sbasbag2
(g39
g4
NtRp55
(dp56
g42
I00
sg43
g49
sg45
(lp57
g51
asbasbsS'features'
p58
(lp59
I0
aI3
aI18
aI0
aI1
asg43
Vadd-k with k=2
p60
sbag2
(g3
g4
NtRp61
(dp62
g7
(lp63
(((lp64
I14
at(lp65
I17
atp66
a(((lp67
I5
aI6
aI1
aI14
aI11
aI9
at(lp68
I8
aI9
aI4
aI17
aI14
aI12
atp69
a(((lt(ltp70
a(((lp71
I1
aI10
aI12
aI4
at(lp72
I4
aI13
aI15
aI7
atp73
a(((lp74
I15
aI14
aI5
at(lp75
I18
aI17
aI8
atp76
a(((lp77
I8
aI3
at(lp78
I11
aI6
atp79
a(((lp80
I10
aI10
aI10
aI3
aI15
aI6
at(lp81
I13
aI13
aI13
aI6
aI18
aI9
atp82
a(((lp83
I6
aI11
aI8
aI2
at(lp84
I9
aI14
aI11
aI5
atp85
a(((lp86
I0
aI13
aI15
aI3
aI9
aI11
at(lp87
I3
aI16
aI18
aI6
aI12
aI14
atp88
a(((lp89
I15
aI6
aI3
aI2
aI3
aI16
aI9
at(lp90
I18
aI9
aI6
aI5
aI6
aI19
aI12
atp91
asg37
I00
sg38
g2
(g39
g4
NtRp92
(dp93
g42
I00
sg43
g44
sg45
(lp94
g2
(g39
g4
NtRp95
(dp96
g42
I00
sg43
g49
sg45
(lp97
g51
asbag2
(g39
g4
NtRp98
(dp99
g42
I00
sg43
g49
sg45
(lp100
g51
asbasbsg58
(lp101
I0
aI3
aI27
aI0
aI1
asg43
Vadd-k with k=3
p102
sbag2
(g3
g4
NtRp103
(dp104
g7
(lp105
(((lp106
I5
aI9
at(lp107
I3
aI7
atp108
a(((lp109
I2
aI15
aI6
aI11
aI4
aI11
at(lp110
I0
aI13
aI4
aI9
aI2
aI9
atp111
a(((lp112
I15
aI4
aI6
at(lp113
I13
aI2
aI4
atp114
a(((lp115
I7
aI0
aI11
aI0
aI6
aI12
at(lp116
I5
aI-2
aI9
aI-2
aI4
aI10
atp117
a(((lt(ltp118
a(((lt(ltp119
a(((lp120
I1
aI15
aI6
aI15
aI13
aI12
at(lp121
I-1
aI13
aI4
aI13
aI11
aI10
atp122
a(((lp123
I12
aI2
aI12
aI6
aI15
at(lp124
I10
aI0
aI10
aI4
aI13
atp125
a(((lt(ltp126
a(((lt(ltp127
asg37
I00
sg38
g2
(g39
g4
NtRp128
(dp129
g42
I00
sg43
g44
sg45
(lp130
g2
(g39
g4
NtRp131
(dp132
g42
I00
sg43
g49
sg45
(lp133
g51
asbag2
(g39
g4
NtRp134
(dp135
g42
I00
sg43
g49
sg45
(lp136
g51
asbasbsg58
(lp137
I0
aI1
aI-12
aI0
aI1
asg43
Vadd-k with k=-2
p138
sbag2
(g3
g4
NtRp139
(dp140
g7
(lp141
(((lp142
I12
aI9
aI1
aI7
at(lp143
I14
aI11
aI3
aI9
atp144
a(((lp145
I13
aI4
aI5
aI2
aI14
at(lp146
I15
aI6
aI7
aI4
aI16
atp147
a(((lp148
I15
aI16
aI11
at(lp149
I17
aI18
aI13
atp150
a(((lp151
I4
aI3
at(lp152
I6
aI5
atp153
a(((lp154
I9
at(lp155
I11
atp156
a(((lt(ltp157
a(((lp158
I15
aI15
aI6
aI11
aI13
at(lp159
I17
aI17
aI8
aI13
aI15
atp160
a(((lp161
I11
aI13
aI11
aI6
at(lp162
I13
aI15
aI13
aI8
atp163
a(((lp164
I6
aI10
at(lp165
I8
aI12
atp166
a(((lp167
I11
aI9
aI12
aI12
aI0
aI0
aI10
at(lp168
I13
aI11
aI14
aI14
aI2
aI2
aI12
atp169
asg37
I00
sg38
g2
(g39
g4
NtRp170
(dp171
g42
I00
sg43
g44
sg45
(lp172
g2
(g39
g4
NtRp173
(dp174
g42
I00
sg43
g49
sg45
(lp175
g51
asbag2
(g39
g4
NtRp176
(dp177
g42
I00
sg43
g49
sg45
(lp178
g51
asbasbsg58
(lp179
I0
aI4
aI18
aI0
aI1
asg43
Vadd-k with k=2
p180
sbag2
(g3
g4
NtRp181
(dp182
g7
(lp183
(((lp184
I5
at(lp185
I5
aI2
atp186
a(((lp187
I6
aI15
aI12
aI6
aI13
aI0
aI10
at(lp188
I6
aI15
aI12
aI6
aI13
aI0
aI10
aI2
atp189
a(((lp190
I14
aI16
aI3
aI16
aI9
at(lp191
I14
aI16
aI3
aI16
aI9
aI2
atp192
a(((lp193
I3
aI10
at(lp194
I3
aI10
aI2
atp195
a(((lp196
I14
at(lp197
I14
aI2
atp198
a(((lp199
I13
aI11
at(lp200
I13
aI11
aI2
atp201
a(((lp202
I4
aI9
aI8
aI4
at(lp203
I4
aI9
aI8
aI4
aI2
atp204
a(((lp205
I4
aI16
at(lp206
I4
aI16
aI2
atp207
a(((lp208
I12
aI1
aI8
aI2
aI9
aI3
at(lp209
I12
aI1
aI8
aI2
aI9
aI3
aI2
atp210
a(((lp211
I13
aI10
aI2
at(lp212
I13
aI10
aI2
aI2
atp213
asg37
I00
sg38
g2
(g39
g4
NtRp214
(dp215
g42
I00
sg43
g44
sg45
(lp216
g2
(g39
g4
NtRp217
(dp218
g42
I00
sg43
g49
sg45
(lp219
g51
asbag2
(g39
g4
NtRp220
(dp221
g42
I00
sg43
g49
sg45
(lp222
g51
asbasbsg58
(lp223
I-10
aI0
aI-20
aI368
aI1
asg43
Vappend-k with k=2
p224
sbag2
(g3
g4
NtRp225
(dp226
g7
(lp227
(((lp228
I2
aI3
aI7
at(lp229
I2
aI3
aI7
aI3
atp230
a(((lp231
I16
aI11
aI4
aI7
aI5
aI11
at(lp232
I16
aI11
aI4
aI7
aI5
aI11
aI3
atp233
a(((lp234
I2
at(lp235
I2
aI3
atp236
a(((lp237
I2
aI12
at(lp238
I2
aI12
aI3
atp239
a(((lp240
I10
aI2
aI5
aI5
aI14
at(lp241
I10
aI2
aI5
aI5
aI14
aI3
atp242
a(((lt(lp243
I3
atp244
a(((lp245
I16
aI0
aI1
aI4
aI12
at(lp246
I16
aI0
aI1
aI4
aI12
aI3
atp247
a(((lt(lp248
I3
atp249
a(((lp250
I15
aI4
aI4
aI11
at(lp251
I15
aI4
aI4
aI11
aI3
atp252
a(((lp253
I15
aI4
aI4
aI16
aI12
aI14
aI4
at(lp254
I15
aI4
aI4
aI16
aI12
aI14
aI4
aI3
atp255
asg37
I00
sg38
g2
(g39
g4
NtRp256
(dp257
g42
I00
sg43
g44
sg45
(lp258
g2
(g39
g4
NtRp259
(dp260
g42
I00
sg43
g49
sg45
(lp261
g51
asbag2
(g39
g4
NtRp262
(dp263
g42
I00
sg43
g49
sg45
(lp264
g51
asbasbsg58
(lp265
I-10
aI0
aI0
aI132
aI1
asg43
Vappend-k with k=3
p266
sbag2
(g3
g4
NtRp267
(dp268
g7
(lp269
(((lp270
I5
aI11
at(lp271
I5
aI11
aI-2
atp272
a(((lp273
I9
at(lp274
I9
aI-2
atp275
a(((lp276
I8
at(lp277
I8
aI-2
atp278
a(((lt(lp279
I-2
atp280
a(((lp281
I6
aI6
aI9
aI10
aI14
aI16
aI5
at(lp282
I6
aI6
aI9
aI10
aI14
aI16
aI5
aI-2
atp283
a(((lp284
I6
at(lp285
I6
aI-2
atp286
a(((lp287
I2
at(lp288
I2
aI-2
atp289
a(((lp290
I12
aI6
aI16
aI2
aI0
aI5
at(lp291
I12
aI6
aI16
aI2
aI0
aI5
aI-2
atp292
a(((lt(lp293
I-2
atp294
a(((lp295
I0
aI15
aI11
at(lp296
I0
aI15
aI11
aI-2
atp297
asg37
I00
sg38
g2
(g39
g4
NtRp298
(dp299
g42
I00
sg43
g44
sg45
(lp300
g2
(g39
g4
NtRp301
(dp302
g42
I00
sg43
g49
sg45
(lp303
g51
asbag2
(g39
g4
NtRp304
(dp305
g42
I00
sg43
g49
sg45
(lp306
g51
asbasbsg58
(lp307
I-10
aI0
aI-29
aI481
aI1
asg43
Vappend-k with k=-2
p308
sbag2
(g3
g4
NtRp309
(dp310
g7
(lp311
(((lp312
I4
aI16
aI11
aI5
aI8
at(lp313
I4
aI16
aI11
aI5
aI8
aI5
atp314
a(((lp315
I6
aI16
at(lp316
I6
aI16
aI5
atp317
a(((lp318
I13
aI12
aI15
aI2
aI14
aI13
aI10
at(lp319
I13
aI12
aI15
aI2
aI14
aI13
aI10
aI5
atp320
a(((lt(lp321
I5
atp322
a(((lp323
I9
aI11
at(lp324
I9
aI11
aI5
atp325
a(((lp326
I3
at(lp327
I3
aI5
atp328
a(((lp329
I4
aI10
aI12
aI3
aI13
aI4
at(lp330
I4
aI10
aI12
aI3
aI13
aI4
aI5
atp331
a(((lp332
I7
aI7
aI3
aI13
aI2
aI8
at(lp333
I7
aI7
aI3
aI13
aI2
aI8
aI5
atp334
a(((lp335
I10
aI4
aI8
aI13
aI10
aI3
at(lp336
I10
aI4
aI8
aI13
aI10
aI3
aI5
atp337
a(((lp338
I5
aI8
at(lp339
I5
aI8
aI5
atp340
asg37
I00
sg38
g2
(g39
g4
NtRp341
(dp342
g42
I00
sg43
g44
sg45
(lp343
g2
(g39
g4
NtRp344
(dp345
g42
I00
sg43
g49
sg45
(lp346
g51
asbag2
(g39
g4
NtRp347
(dp348
g42
I00
sg43
g49
sg45
(lp349
g51
asbasbsg58
(lp350
I-10
aI0
aI0
aI104
aI1
asg43
Vappend-k with k=5
p351
sbag2
(g3
g4
NtRp352
(dp353
g7
(lp354
(((lp355
I6
aI1
aI4
at(lp356
I1
aI3
aI6
atp357
a(((lp358
I1
at(lp359
I3
atp360
a(((lp361
I3
aI4
aI1
at(lp362
I5
aI6
aI3
atp363
a(((lp364
I5
aI4
aI2
at(lp365
I0
aI6
aI4
atp366
a(((lp367
I4
aI4
aI0
aI4
aI5
aI3
at(lp368
I6
aI6
aI2
aI6
aI0
aI5
atp369
a(((lp370
I1
aI2
aI5
aI2
at(lp371
I3
aI4
aI0
aI4
atp372
a(((lp373
I5
aI0
aI4
aI5
aI2
aI1
aI3
at(lp374
I0
aI2
aI6
aI0
aI4
aI3
aI5
atp375
a(((lp376
I6
aI1
aI4
aI2
at(lp377
I1
aI3
aI6
aI4
atp378
a(((lp379
I5
aI2
aI2
aI2
aI1
at(lp380
I0
aI4
aI4
aI4
aI3
atp381
a(((lp382
I3
at(lp383
I5
atp384
asg37
I00
sg38
g2
(g39
g4
NtRp385
(dp386
g42
I00
sg43
g44
sg45
(lp387
g2
(g39
g4
NtRp388
(dp389
g42
I00
sg43
g49
sg45
(lp390
g51
asbag2
(g39
g4
NtRp391
(dp392
g42
I00
sg43
g49
sg45
(lp393
g51
asbasbsg58
(lp394
I0
aI2
aI8
aI43
aI1
asg43
Vcaesar-cipher-k-modulo-n with k=2 and n=7
p395
sbag2
(g3
g4
NtRp396
(dp397
g7
(lp398
(((lp399
I3
aI0
aI1
at(lp400
I4
aI1
aI2
atp401
a(((lp402
I0
at(lp403
I1
atp404
a(((lt(ltp405
a(((lp406
I4
aI5
aI0
aI0
aI1
aI4
at(lp407
I5
aI6
aI1
aI1
aI2
aI5
atp408
a(((lp409
I1
aI1
aI0
aI3
aI3
aI3
aI6
at(lp410
I2
aI2
aI1
aI4
aI4
aI4
aI0
atp411
a(((lp412
I2
aI6
at(lp413
I3
aI0
atp414
a(((lp415
I6
at(lp416
I0
atp417
a(((lp418
I6
aI1
aI3
aI6
at(lp419
I0
aI2
aI4
aI0
atp420
a(((lp421
I1
aI3
aI0
aI1
aI3
aI5
aI0
at(lp422
I2
aI4
aI1
aI2
aI4
aI6
aI1
atp423
a(((lp424
I1
aI4
aI6
aI5
aI5
aI4
at(lp425
I2
aI5
aI0
aI6
aI6
aI5
atp426
asg37
I00
sg38
g2
(g39
g4
NtRp427
(dp428
g42
I00
sg43
g44
sg45
(lp429
g2
(g39
g4
NtRp430
(dp431
g42
I00
sg43
g49
sg45
(lp432
g51
asbag2
(g39
g4
NtRp433
(dp434
g42
I00
sg43
g49
sg45
(lp435
g51
asbasbsg58
(lp436
I0
aI3
aI-8
aI-2
aI1
asg43
Vcaesar-cipher-k-modulo-n with k=1 and n=7
p437
sbag2
(g3
g4
NtRp438
(dp439
g7
(lp440
(((lp441
I2
aI1
at(lp442
I3
aI2
atp443
a(((lp444
I3
aI2
aI4
at(lp445
I4
aI3
aI0
atp446
a(((lp447
I1
aI3
aI3
aI3
aI2
aI3
at(lp448
I2
aI4
aI4
aI4
aI3
aI4
atp449
a(((lp450
I4
aI2
aI1
aI1
aI1
at(lp451
I0
aI3
aI2
aI2
aI2
atp452
a(((lp453
I2
at(lp454
I3
atp455
a(((lp456
I2
aI2
aI0
aI0
aI4
aI1
aI0
at(lp457
I3
aI3
aI1
aI1
aI0
aI2
aI1
atp458
a(((lp459
I2
aI3
aI0
aI2
at(lp460
I3
aI4
aI1
aI3
atp461
a(((lp462
I4
aI4
aI0
at(lp463
I0
aI0
aI1
atp464
a(((lp465
I0
aI1
aI4
aI2
aI4
aI2
aI2
at(lp466
I1
aI2
aI0
aI3
aI0
aI3
aI3
atp467
a(((lp468
I4
aI0
at(lp469
I0
aI1
atp470
asg37
I00
sg38
g2
(g39
g4
NtRp471
(dp472
g42
I00
sg43
g44
sg45
(lp473
g2
(g39
g4
NtRp474
(dp475
g42
I00
sg43
g49
sg45
(lp476
g51
asbag2
(g39
g4
NtRp477
(dp478
g42
I00
sg43
g49
sg45
(lp479
g51
asbasbsg58
(lp480
I0
aI1
aI-2
aI-15
aI1
asg43
Vcaesar-cipher-k-modulo-n with k=1 and n=5
p481
sbag2
(g3
g4
NtRp482
(dp483
g7
(lp484
(((lp485
I3
aI0
aI3
aI3
aI2
at(lp486
I2
aI3
aI2
aI2
aI1
atp487
a(((lt(ltp488
a(((lp489
I2
aI2
at(lp490
I1
aI1
atp491
a(((lp492
I0
at(lp493
I3
atp494
a(((lp495
I1
aI2
aI2
aI0
aI3
aI1
at(lp496
I0
aI1
aI1
aI3
aI2
aI0
atp497
a(((lp498
I1
aI1
aI0
aI3
aI0
aI2
at(lp499
I0
aI0
aI3
aI2
aI3
aI1
atp500
a(((lp501
I2
aI1
aI1
aI3
aI2
aI0
at(lp502
I1
aI0
aI0
aI2
aI1
aI3
atp503
a(((lp504
I1
aI2
at(lp505
I0
aI1
atp506
a(((lp507
I2
aI0
aI0
at(lp508
I1
aI3
aI3
atp509
a(((lp510
I0
at(lp511
I3
atp512
asg37
I00
sg38
g2
(g39
g4
NtRp513
(dp514
g42
I00
sg43
g44
sg45
(lp515
g2
(g39
g4
NtRp516
(dp517
g42
I00
sg43
g49
sg45
(lp518
g51
asbag2
(g39
g4
NtRp519
(dp520
g42
I00
sg43
g49
sg45
(lp521
g51
asbasbsg58
(lp522
I0
aI2
aI6
aI-2
aI1
asg43
Vcaesar-cipher-k-modulo-n with k=3 and n=4
p523
sbag2
(g3
g4
NtRp524
(dp525
g7
(lp526
(((lp527
I1
aI1
aI2
atI1
tp528
a(((lp529
I1
aI2
aI3
atI0
tp530
a(((lp531
I2
aI1
aI2
atI1
tp532
a(((lp533
I2
aI3
aI4
atI0
tp534
a(((lp535
I0
aI5
aI4
aI0
aI2
atI1
tp536
a(((lp537
I3
aI1
aI3
aI3
aI2
atI2
tp538
a(((lp539
I4
aI2
aI6
aI10
aI8
aI12
atI0
tp540
asg37
I00
sg38
g2
(g39
g4
NtRp541
(dp542
g42
I00
sg43
g44
sg45
(lp543
g2
(g39
g4
NtRp544
(dp545
g42
I00
sg43
g49
sg45
(lp546
g51
asbag51
asbsg58
(lp547
I28
aI3
aI-13
aI102
aI0
asg43
Vcount-head-in-tail
p548
sbag2
(g3
g4
NtRp549
(dp550
g7
(lp551
(((lp552
I2
aI14
aI15
aI7
aI9
atI1
tp553
a(((lp554
I11
aI12
atI0
tp555
a(((lp556
I13
aI11
aI2
aI2
aI2
aI2
atI4
tp557
a(((lp558
I10
aI11
aI11
aI9
aI1
aI10
atI0
tp559
a(((lp560
I2
aI2
aI2
aI2
atI4
tp561
a(((lp562
I2
aI2
aI2
aI2
aI2
atI5
tp563
a(((lp564
I5
aI9
aI12
aI2
aI4
aI9
atI1
tp565
a(((lp566
I3
aI2
aI3
atI1
tp567
a(((ltI0
tp568
a(((lp569
I2
aI2
aI13
aI2
aI3
atI3
tp570
asg37
I00
sg38
g2
(g39
g4
NtRp571
(dp572
g42
I00
sg43
g44
sg45
(lp573
g2
(g39
g4
NtRp574
(dp575
g42
I00
sg43
g49
sg45
(lp576
g51
asbag51
asbsg58
(lp577
I42
aI2
aI-30
aI498
aI0
asg43
Vcount-k with k=2
p578
sbag2
(g3
g4
NtRp579
(dp580
g7
(lp581
(((lp582
I6
aI2
aI8
atI0
tp583
a(((lp584
I1
aI2
aI2
atI0
tp585
a(((lp586
I10
aI2
aI10
aI4
aI8
aI6
aI2
atI0
tp587
a(((lp588
I11
aI8
aI15
aI5
atI0
tp589
a(((lp590
I4
aI3
aI6
aI3
aI9
aI3
aI1
atI3
tp591
a(((lp592
I6
aI5
aI6
aI3
atI1
tp593
a(((lp594
I13
aI2
aI10
aI4
aI11
aI4
aI6
atI0
tp595
a(((lp596
I3
atI1
tp597
a(((lp598
I3
atI1
tp599
a(((lp600
I10
atI0
tp601
asg37
I00
sg38
g2
(g39
g4
NtRp602
(dp603
g42
I00
sg43
g44
sg45
(lp604
g2
(g39
g4
NtRp605
(dp606
g42
I00
sg43
g49
sg45
(lp607
g51
asbag51
asbsg58
(lp608
I38
aI5
aI-47
aI302
aI0
asg43
Vcount-k with k=3
p609
sbag2
(g3
g4
NtRp610
(dp611
g7
(lp612
(((lp613
I1
aI6
atI1
tp614
a(((lp615
I12
aI6
aI10
aI6
aI0
atI2
tp616
a(((lp617
I11
aI6
aI1
aI6
atI2
tp618
a(((lp619
I6
aI6
aI6
aI9
aI6
atI4
tp620
a(((lp621
I9
atI0
tp622
a(((lp623
I7
aI1
aI6
aI10
atI1
tp624
a(((lp625
I13
aI13
aI5
atI0
tp626
a(((lp627
I11
aI13
aI0
aI14
aI2
aI11
atI0
tp628
a(((lp629
I6
aI6
aI6
atI3
tp630
a(((lp631
I2
aI6
aI6
aI6
aI6
aI6
atI5
tp632
asg37
I00
sg38
g2
(g39
g4
NtRp633
(dp634
g42
I00
sg43
g44
sg45
(lp635
g2
(g39
g4
NtRp636
(dp637
g42
I00
sg43
g49
sg45
(lp638
g51
asbag51
asbsg58
(lp639
I39
aI1
aI-47
aI438
aI0
asg43
Vcount-k with k=6
p640
sbag2
(g3
g4
NtRp641
(dp642
g7
(lp643
(((lp644
I1
aI1
aI1
at(lp645
I1
atp646
a(((lp647
I2
aI5
aI4
aI2
aI2
aI0
aI5
aI1
aI1
at(lp648
I2
aI5
aI4
aI2
aI0
aI5
aI1
atp649
asg37
I00
sg38
g2
(g39
g4
NtRp650
(dp651
g42
I00
sg43
g44
sg45
(lp652
g2
(g39
g4
NtRp653
(dp654
g42
I00
sg43
g49
sg45
(lp655
g51
asbag2
(g39
g4
NtRp656
(dp657
g42
I00
sg43
g49
sg45
(lp658
g51
asbasbsg58
(lp659
I4
aI0
aI0
aI-1
aI1
asg43
Vdedup
p660
sbag2
(g3
g4
NtRp661
(dp662
g7
(lp663
(((lp664
I15
aI2
aI1
aI14
aI9
aI15
aI12
aI12
aI3
at(lp665
I1
aI14
aI9
aI15
aI12
aI12
aI3
atp666
a(((lp667
I0
aI13
aI3
aI6
aI9
aI0
at(lp668
I3
aI6
aI9
aI0
atp669
a(((lp670
I4
aI3
aI13
aI2
aI6
aI0
aI12
aI5
at(lp671
I13
aI2
aI6
aI0
aI12
aI5
atp672
a(((lp673
I16
aI13
at(ltp674
a(((lp675
I6
aI0
aI0
aI7
aI4
at(lp676
I0
aI7
aI4
atp677
a(((lp678
I15
aI16
aI11
aI1
aI9
aI13
at(lp679
I11
aI1
aI9
aI13
atp680
a(((lp681
I13
aI14
aI13
at(lp682
I13
atp683
a(((lp684
I9
aI13
aI2
aI2
aI0
aI8
at(lp685
I2
aI2
aI0
aI8
atp686
a(((lp687
I2
aI0
aI14
aI9
aI8
aI9
aI11
aI4
at(lp688
I14
aI9
aI8
aI9
aI11
aI4
atp689
a(((lp690
I7
aI0
aI11
aI4
aI10
at(lp691
I11
aI4
aI10
atp692
asg37
I00
sg38
g2
(g39
g4
NtRp693
(dp694
g42
I00
sg43
g44
sg45
(lp695
g2
(g39
g4
NtRp696
(dp697
g42
I00
sg43
g49
sg45
(lp698
g51
asbag2
(g39
g4
NtRp699
(dp700
g42
I00
sg43
g49
sg45
(lp701
g51
asbasbsg58
(lp702
I20
aI1
aI-14
aI-533
aI1
asg43
Vdrop-k with k=2
p703
sbag2
(g3
g4
NtRp704
(dp705
g7
(lp706
(((lp707
I14
aI10
aI14
at(ltp708
a(((lp709
I0
aI4
aI12
at(ltp710
a(((lp711
I2
aI3
aI0
aI9
aI7
aI8
aI16
aI4
aI5
aI16
at(lp712
I9
aI7
aI8
aI16
aI4
aI5
aI16
atp713
a(((lp714
I15
aI9
aI16
aI4
at(lp715
I4
atp716
a(((lp717
I16
aI15
aI4
aI7
aI0
aI2
aI7
at(lp718
I7
aI0
aI2
aI7
atp719
a(((lp720
I0
aI14
aI4
aI11
aI15
aI13
aI12
aI11
at(lp721
I11
aI15
aI13
aI12
aI11
atp722
a(((lp723
I6
aI9
aI8
aI8
aI4
aI7
at(lp724
I8
aI4
aI7
atp725
a(((lp726
I15
aI1
aI7
aI16
aI11
aI15
aI13
aI0
aI11
aI0
at(lp727
I16
aI11
aI15
aI13
aI0
aI11
aI0
atp728
a(((lp729
I16
aI0
aI0
aI4
aI9
aI1
aI1
aI15
aI1
at(lp730
I4
aI9
aI1
aI1
aI15
aI1
atp731
a(((lp732
I10
aI16
aI1
at(ltp733
asg37
I00
sg38
g2
(g39
g4
NtRp734
(dp735
g42
I00
sg43
g44
sg45
(lp736
g2
(g39
g4
NtRp737
(dp738
g42
I00
sg43
g49
sg45
(lp739
g51
asbag2
(g39
g4
NtRp740
(dp741
g42
I00
sg43
g49
sg45
(lp742
g51
asbasbsg58
(lp743
I30
aI2
aI-32
aI-1081
aI1
asg43
Vdrop-k with k=3
p744
sbag2
(g3
g4
NtRp745
(dp746
g7
(lp747
(((lp748
I15
aI13
aI6
aI0
aI11
aI4
aI2
aI13
at(lp749
I4
aI2
aI13
atp750
a(((lp751
I9
aI15
aI2
aI11
aI14
aI9
aI0
aI6
aI8
aI0
aI7
at(lp752
I9
aI0
aI6
aI8
aI0
aI7
atp753
a(((lp754
I16
aI8
aI2
aI13
aI0
aI4
aI0
aI4
aI12
aI3
aI16
at(lp755
I4
aI0
aI4
aI12
aI3
aI16
atp756
a(((lp757
I16
aI15
aI12
aI10
aI10
aI12
aI10
aI1
aI11
aI14
aI3
at(lp758
I12
aI10
aI1
aI11
aI14
aI3
atp759
a(((lp760
I9
aI13
aI1
aI4
aI1
aI15
aI3
aI7
aI9
aI12
at(lp761
I15
aI3
aI7
aI9
aI12
atp762
a(((lp763
I9
aI8
aI6
aI6
aI15
aI1
aI15
at(lp764
I1
aI15
atp765
a(((lp766
I10
aI5
aI11
aI15
aI10
aI13
aI14
aI11
at(lp767
I13
aI14
aI11
atp768
a(((lp769
I10
aI14
aI14
aI3
aI3
aI3
aI12
aI1
aI12
aI3
at(lp770
I3
aI12
aI1
aI12
aI3
atp771
a(((lp772
I7
aI14
aI2
aI11
aI1
at(ltp773
a(((lp774
I9
aI7
aI6
aI3
aI3
aI13
aI12
aI6
aI16
at(lp775
I13
aI12
aI6
aI16
atp776
asg37
I00
sg38
g2
(g39
g4
NtRp777
(dp778
g42
I00
sg43
g44
sg45
(lp779
g2
(g39
g4
NtRp780
(dp781
g42
I00
sg43
g49
sg45
(lp782
g51
asbag2
(g39
g4
NtRp783
(dp784
g42
I00
sg43
g49
sg45
(lp785
g51
asbasbsg58
(lp786
I50
aI1
aI-9
aI-1252
aI1
asg43
Vdrop-k with k=5
p787
sbag2
(g3
g4
NtRp788
(dp789
g7
(lp790
(((lp791
I0
at(lp792
I0
aI0
atp793
a(((lp794
I7
aI2
aI4
at(lp795
I7
aI7
aI2
aI2
aI4
aI4
atp796
asg37
I00
sg38
g2
(g39
g4
NtRp797
(dp798
g42
I00
sg43
g44
sg45
(lp799
g2
(g39
g4
NtRp800
(dp801
g42
I00
sg43
g49
sg45
(lp802
g51
asbag2
(g39
g4
NtRp803
(dp804
g42
I00
sg43
g49
sg45
(lp805
g51
asbasbsg58
(lp806
I-4
aI0
aI0
aI13
aI1
asg43
Vdup
p807
sbag2
(g3
g4
NtRp808
(dp809
g7
(lp810
(((lp811
I1
aI2
aI3
atI00
tp812
a(((ltI01
tp813
a(((lp814
I0
atI00
tp815
a(((lp816
I1
aI1
aI2
aI1
atI00
tp817
a(((ltI01
tp818
a(((lp819
I9
aI6
aI3
aI3
aI0
atI00
tp820
a(((ltI01
tp821
a(((lp822
I4
atI00
tp823
a(((ltI01
tp824
a(((lp825
I0
aI8
atI00
tp826
asg37
I00
sg38
g2
(g39
g4
NtRp827
(dp828
g42
I00
sg43
g44
sg45
(lp829
g2
(g39
g4
NtRp830
(dp831
g42
I00
sg43
g49
sg45
(lp832
g51
asbag2
(g39
g4
NtRp833
(dp834
g42
I00
sg43
S'bool'
p835
sg45
(lp836
sbasbsg58
(lp837
I16
aI0
aI15
aI82
aI-1
asg43
Vempty
p838
sbag2
(g3
g4
NtRp839
(dp840
g7
(lp841
(((lp842
I2
aI0
aI4
at(lp843
I2
aI0
aI4
atp844
a(((lp845
I2
aI5
aI4
aI2
aI0
aI5
aI1
aI1
at(lp846
I2
aI4
aI2
aI0
atp847
asg37
I00
sg38
g2
(g39
g4
NtRp848
(dp849
g42
I00
sg43
g44
sg45
(lp850
g2
(g39
g4
NtRp851
(dp852
g42
I00
sg43
g49
sg45
(lp853
g51
asbag2
(g39
g4
NtRp854
(dp855
g42
I00
sg43
g49
sg45
(lp856
g51
asbasbsg58
(lp857
I4
aI0
aI0
aI-20
aI1
asg43
Vevens
p858
sbag2
(g3
g4
NtRp859
(dp860
g7
(lp861
(((lp862
I1
aI1
aI2
atI01
tp863
a(((lp864
I1
aI2
aI3
atI00
tp865
a(((lp866
I2
aI1
aI2
atI01
tp867
a(((lp868
I2
aI3
aI4
atI00
tp869
a(((lp870
I3
aI1
aI3
aI4
aI2
atI01
tp871
a(((lp872
I4
aI2
aI6
aI10
aI8
aI12
atI00
tp873
a(((lp874
I7
aI7
atI01
tp875
a(((lp876
I16
aI16
atI01
tp877
a(((lp878
I15
atI00
tp879
a(((lp880
I7
aI15
aI4
aI12
atI00
tp881
asg37
I00
sg38
g2
(g39
g4
NtRp882
(dp883
g42
I00
sg43
g44
sg45
(lp884
g2
(g39
g4
NtRp885
(dp886
g42
I00
sg43
g49
sg45
(lp887
g51
asbag833
asbsg58
(lp888
I32
aI0
aI63
aI158
aI-1
asg43
Vhas-head-in-tail
p889
sbag2
(g3
g4
NtRp890
(dp891
g7
(lp892
(((lp893
I8
aI2
aI2
atI01
tp894
a(((lp895
I2
aI2
aI15
aI13
aI0
aI2
aI2
atI01
tp896
a(((lp897
I15
aI1
aI1
aI2
atI01
tp898
a(((ltI00
tp899
a(((lp900
I12
aI14
aI12
aI13
aI14
aI4
aI3
atI00
tp901
a(((lp902
I12
aI2
aI2
aI16
aI13
aI11
atI01
tp903
a(((ltI00
tp904
a(((lp905
I2
aI2
atI01
tp906
a(((lp907
I1
aI13
aI12
aI8
atI00
tp908
a(((lp909
I2
aI2
aI2
atI01
tp910
asg37
I00
sg38
g2
(g39
g4
NtRp911
(dp912
g42
I00
sg43
g44
sg45
(lp913
g2
(g39
g4
NtRp914
(dp915
g42
I00
sg43
g49
sg45
(lp916
g51
asbag833
asbsg58
(lp917
I36
aI0
aI44
aI792
aI-1
asg43
Vhas-k with k=2
p918
sbag2
(g3
g4
NtRp919
(dp920
g7
(lp921
(((lp922
I7
aI0
aI15
atI00
tp923
a(((lp924
I11
aI4
aI4
aI16
atI00
tp925
a(((lp926
I6
aI13
aI3
aI3
aI3
aI9
aI3
atI01
tp927
a(((lp928
I3
aI3
aI3
aI3
atI01
tp929
a(((lp930
I9
aI13
aI3
aI4
aI10
atI01
tp931
a(((ltI00
tp932
a(((lp933
I1
aI13
aI12
atI00
tp934
a(((lp935
I3
atI01
tp936
a(((lp937
I3
aI11
aI3
aI1
atI01
tp938
a(((lp939
I3
atI01
tp940
asg37
I00
sg38
g2
(g39
g4
NtRp941
(dp942
g42
I00
sg43
g44
sg45
(lp943
g2
(g39
g4
NtRp944
(dp945
g42
I00
sg43
g49
sg45
(lp946
g51
asbag833
asbsg58
(lp947
I32
aI0
aI48
aI539
aI-1
asg43
Vhas-k with k=3
p948
sbag2
(g3
g4
NtRp949
(dp950
g7
(lp951
(((lp952
I15
aI12
aI14
aI12
atI00
tp953
a(((lp954
I4
aI3
aI13
aI3
aI3
aI12
atI01
tp955
a(((ltI00
tp956
a(((lp957
I11
aI6
aI4
aI0
aI14
aI5
aI4
atI00
tp958
a(((lp959
I10
aI8
aI12
aI8
aI9
aI7
atI00
tp960
a(((lp961
I1
aI13
aI12
aI8
atI00
tp962
a(((lp963
I3
aI3
aI3
atI01
tp964
a(((ltI00
tp965
a(((lp966
I11
aI14
aI5
aI7
aI15
aI10
aI6
atI00
tp967
a(((lp968
I13
aI7
aI2
aI0
aI9
aI7
aI2
atI00
tp969
asg37
I00
sg38
g2
(g39
g4
NtRp970
(dp971
g42
I00
sg43
g44
sg45
(lp972
g2
(g39
g4
NtRp973
(dp974
g42
I00
sg43
g49
sg45
(lp975
g51
asbag833
asbsg58
(lp976
I44
aI0
aI59
aI589
aI-1
asg43
Vhas-k with k=3
p977
sbag2
(g3
g4
NtRp978
(dp979
g7
(lp980
(((lp981
I1
aI2
aI3
atI1
tp982
a(((lp983
I0
atI0
tp984
a(((lp985
I1
aI1
aI2
aI1
atI1
tp986
asg37
I00
sg38
g2
(g39
g4
NtRp987
(dp988
g42
I00
sg43
g44
sg45
(lp989
g2
(g39
g4
NtRp990
(dp991
g42
I00
sg43
g49
sg45
(lp992
g51
asbag51
asbsg58
(lp993
I8
aI0
aI-1
aI3
aI0
asg43
Vhead
p994
sbag2
(g3
g4
NtRp995
(dp996
g7
(lp997
(((lp998
I1
aI1
aI2
atI1
tp999
a(((lp1000
I1
aI2
aI3
atI2
tp1001
a(((lp1002
I2
aI1
aI2
atI2
tp1003
a(((lp1004
I2
aI3
aI4
atI4
tp1005
a(((lp1006
I3
aI1
aI3
aI4
aI2
atI4
tp1007
a(((lp1008
I4
aI2
aI6
aI10
aI8
aI12
atI8
tp1009
a(((lp1010
I1
aI16
atI16
tp1011
a(((lp1012
I5
aI14
aI5
aI7
aI15
aI10
aI6
atI10
tp1013
a(((lp1014
I4
aI13
aI7
aI2
aI0
aI9
aI7
atI0
tp1015
a(((lp1016
I1
aI10
atI10
tp1017
asg37
I00
sg38
g2
(g39
g4
NtRp1018
(dp1019
g42
I00
sg43
g44
sg45
(lp1020
g2
(g39
g4
NtRp1021
(dp1022
g42
I00
sg43
g49
sg45
(lp1023
g51
asbag51
asbsg58
(lp1024
I41
aI0
aI14
aI466
aI0
asg43
Vindex-head
p1025
sbag2
(g3
g4
NtRp1026
(dp1027
g7
(lp1028
(((lp1029
I9
aI14
aI8
aI8
aI6
aI7
atI14
tp1030
a(((lp1031
I16
aI5
aI6
aI10
aI9
atI5
tp1032
a(((lp1033
I1
aI8
aI0
aI10
atI8
tp1034
a(((lp1035
I6
aI9
atI9
tp1036
a(((lp1037
I4
aI3
aI16
aI1
aI12
aI9
aI3
aI0
aI6
atI3
tp1038
a(((lp1039
I2
aI5
aI11
aI8
aI11
aI5
aI4
aI0
atI5
tp1040
a(((lp1041
I5
aI1
aI12
aI16
aI15
aI8
aI7
atI1
tp1042
a(((lp1043
I5
aI3
aI7
aI11
aI14
aI6
aI5
atI3
tp1044
a(((lp1045
I3
aI7
aI0
aI5
aI1
aI9
atI7
tp1046
a(((lp1047
I10
aI1
aI12
atI1
tp1048
asg37
I00
sg38
g2
(g39
g4
NtRp1049
(dp1050
g42
I00
sg43
g44
sg45
(lp1051
g2
(g39
g4
NtRp1052
(dp1053
g42
I00
sg43
g49
sg45
(lp1054
g51
asbag51
asbsg58
(lp1055
I57
aI0
aI-10
aI943
aI0
asg43
Vindex-k with k=2
p1056
sbag2
(g3
g4
NtRp1057
(dp1058
g7
(lp1059
(((lp1060
I9
aI8
aI8
aI4
aI0
aI9
aI3
aI9
aI1
atI8
tp1061
a(((lp1062
I11
aI14
aI1
aI10
aI10
aI5
atI1
tp1063
a(((lp1064
I1
aI15
aI14
aI5
aI6
aI4
aI0
aI1
aI5
aI0
atI14
tp1065
a(((lp1066
I7
aI16
aI4
atI4
tp1067
a(((lp1068
I7
aI3
aI7
aI9
aI9
atI7
tp1069
a(((lp1070
I8
aI4
aI3
atI3
tp1071
a(((lp1072
I8
aI12
aI5
aI16
atI5
tp1073
a(((lp1074
I8
aI14
aI13
aI9
atI13
tp1075
a(((lp1076
I6
aI12
aI4
aI4
aI12
aI5
aI12
aI11
atI4
tp1077
a(((lp1078
I2
aI3
aI7
aI4
aI4
aI13
aI11
aI15
atI7
tp1079
asg37
I00
sg38
g2
(g39
g4
NtRp1080
(dp1081
g42
I00
sg43
g44
sg45
(lp1082
g2
(g39
g4
NtRp1083
(dp1084
g42
I00
sg43
g49
sg45
(lp1085
g51
asbag51
asbsg58
(lp1086
I60
aI0
aI-9
aI976
aI0
asg43
Vindex-k with k=3
p1087
sbag2
(g3
g4
NtRp1088
(dp1089
g7
(lp1090
(((lp1091
I11
aI6
aI3
aI3
aI2
aI9
at(lp1092
I11
aI1
aI6
aI1
aI3
aI1
aI3
aI1
aI2
aI1
aI9
atp1093
a(((lp1094
I13
aI6
at(lp1095
I13
aI1
aI6
atp1096
a(((lp1097
I10
aI10
aI2
aI3
at(lp1098
I10
aI1
aI10
aI1
aI2
aI1
aI3
atp1099
a(((lp1100
I11
aI15
aI7
aI9
aI4
aI7
at(lp1101
I11
aI1
aI15
aI1
aI7
aI1
aI9
aI1
aI4
aI1
aI7
atp1102
a(((lp1103
I5
at(lp1104
I5
atp1105
a(((lp1106
I2
aI11
aI5
aI4
aI16
aI5
aI9
at(lp1107
I2
aI1
aI11
aI1
aI5
aI1
aI4
aI1
aI16
aI1
aI5
aI1
aI9
atp1108
a(((lp1109
I5
aI1
aI16
at(lp1110
I5
aI1
aI1
aI1
aI16
atp1111
a(((lp1112
I5
aI6
at(lp1113
I5
aI1
aI6
atp1114
a(((lp1115
I15
aI16
at(lp1116
I15
aI1
aI16
atp1117
a(((lp1118
I2
aI11
aI10
at(lp1119
I2
aI1
aI11
aI1
aI10
atp1120
asg37
I00
sg38
g2
(g39
g4
NtRp1121
(dp1122
g42
I00
sg43
g44
sg45
(lp1123
g2
(g39
g4
NtRp1124
(dp1125
g42
I00
sg43
g49
sg45
(lp1126
g51
asbag2
(g39
g4
NtRp1127
(dp1128
g42
I00
sg43
g49
sg45
(lp1129
g51
asbasbsg58
(lp1130
I-26
aI0
aI-24
aI712
aI1
asg43
Vintersperse-k with k=1
p1131
sbag2
(g3
g4
NtRp1132
(dp1133
g7
(lp1134
(((lp1135
I9
aI6
aI6
at(lp1136
I9
aI4
aI6
aI4
aI6
atp1137
a(((lt(ltp1138
a(((lp1139
I9
at(lp1140
I9
atp1141
a(((lt(ltp1142
a(((lp1143
I3
aI8
aI3
aI4
aI13
at(lp1144
I3
aI4
aI8
aI4
aI3
aI4
aI4
aI4
aI13
atp1145
a(((lp1146
I16
aI14
at(lp1147
I16
aI4
aI14
atp1148
a(((lp1149
I11
aI9
at(lp1150
I11
aI4
aI9
atp1151
a(((lp1152
I15
aI2
aI4
at(lp1153
I15
aI4
aI2
aI4
aI4
atp1154
a(((lp1155
I8
aI4
aI16
aI9
aI0
aI13
aI1
at(lp1156
I8
aI4
aI4
aI4
aI16
aI4
aI9
aI4
aI0
aI4
aI13
aI4
aI1
atp1157
a(((lp1158
I12
aI5
aI12
at(lp1159
I12
aI4
aI5
aI4
aI12
atp1160
asg37
I00
sg38
g2
(g39
g4
NtRp1161
(dp1162
g42
I00
sg43
g44
sg45
(lp1163
g2
(g39
g4
NtRp1164
(dp1165
g42
I00
sg43
g49
sg45
(lp1166
g51
asbag2
(g39
g4
NtRp1167
(dp1168
g42
I00
sg43
g49
sg45
(lp1169
g51
asbasbsg58
(lp1170
I-18
aI0
aI-15
aI224
aI1
asg43
Vintersperse-k with k=4
p1171
sbag2
(g3
g4
NtRp1172
(dp1173
g7
(lp1174
(((lp1175
I15
aI13
aI13
aI6
aI6
aI7
at(lp1176
I15
aI-2
aI13
aI-2
aI13
aI-2
aI6
aI-2
aI6
aI-2
aI7
atp1177
a(((lp1178
I2
aI6
aI6
at(lp1179
I2
aI-2
aI6
aI-2
aI6
atp1180
a(((lp1181
I10
aI13
aI1
aI6
at(lp1182
I10
aI-2
aI13
aI-2
aI1
aI-2
aI6
atp1183
a(((lp1184
I14
aI9
aI0
at(lp1185
I14
aI-2
aI9
aI-2
aI0
atp1186
a(((lp1187
I8
aI16
aI9
aI7
aI16
aI4
aI8
at(lp1188
I8
aI-2
aI16
aI-2
aI9
aI-2
aI7
aI-2
aI16
aI-2
aI4
aI-2
aI8
atp1189
a(((lp1190
I9
aI9
aI3
aI16
aI9
aI0
at(lp1191
I9
aI-2
aI9
aI-2
aI3
aI-2
aI16
aI-2
aI9
aI-2
aI0
atp1192
a(((lp1193
I15
at(lp1194
I15
atp1195
a(((lp1196
I14
aI9
aI1
at(lp1197
I14
aI-2
aI9
aI-2
aI1
atp1198
a(((lp1199
I15
at(lp1200
I15
atp1201
a(((lp1202
I0
aI0
aI10
at(lp1203
I0
aI-2
aI0
aI-2
aI10
atp1204
asg37
I00
sg38
g2
(g39
g4
NtRp1205
(dp1206
g42
I00
sg43
g44
sg45
(lp1207
g2
(g39
g4
NtRp1208
(dp1209
g42
I00
sg43
g49
sg45
(lp1210
g51
asbag2
(g39
g4
NtRp1211
(dp1212
g42
I00
sg43
g49
sg45
(lp1213
g51
asbasbsg58
(lp1214
I-27
aI0
aI-31
aI1565
aI1
asg43
Vintersperse-k with k=-2
p1215
sbag2
(g3
g4
NtRp1216
(dp1217
g7
(lp1218
(((lp1219
I10
aI14
at(lp1220
I10
aI0
aI14
atp1221
a(((lp1222
I8
aI8
aI4
aI0
at(lp1223
I8
aI0
aI8
aI0
aI4
aI0
aI0
atp1224
a(((lp1225
I3
aI9
aI1
aI7
at(lp1226
I3
aI0
aI9
aI0
aI1
aI0
aI7
atp1227
a(((lp1228
I14
aI1
aI10
aI10
aI5
at(lp1229
I14
aI0
aI1
aI0
aI10
aI0
aI10
aI0
aI5
atp1230
a(((lp1231
I1
aI15
aI14
aI5
aI6
aI4
aI0
at(lp1232
I1
aI0
aI15
aI0
aI14
aI0
aI5
aI0
aI6
aI0
aI4
aI0
aI0
atp1233
a(((lt(ltp1234
a(((lp1235
I0
aI1
at(lp1236
I0
aI0
aI1
atp1237
a(((lp1238
I16
aI4
aI4
at(lp1239
I16
aI0
aI4
aI0
aI4
atp1240
a(((lp1241
I3
aI7
aI9
at(lp1242
I3
aI0
aI7
aI0
aI9
atp1243
a(((lp1244
I0
aI8
aI4
aI3
at(lp1245
I0
aI0
aI8
aI0
aI4
aI0
aI3
atp1246
asg37
I00
sg38
g2
(g39
g4
NtRp1247
(dp1248
g42
I00
sg43
g44
sg45
(lp1249
g2
(g39
g4
NtRp1250
(dp1251
g42
I00
sg43
g49
sg45
(lp1252
g51
asbag2
(g39
g4
NtRp1253
(dp1254
g42
I00
sg43
g49
sg45
(lp1255
g51
asbasbsg58
(lp1256
I-25
aI0
aI-25
aI624
aI1
asg43
Vintersperse-k with k=0
p1257
sbag2
(g3
g4
NtRp1258
(dp1259
g7
(lp1260
(((lp1261
I2
aI0
aI4
atI01
tp1262
a(((lp1263
I2
aI5
aI4
aI2
aI0
aI5
aI1
aI1
atI00
tp1264
asg37
I00
sg38
g2
(g39
g4
NtRp1265
(dp1266
g42
I00
sg43
g44
sg45
(lp1267
g2
(g39
g4
NtRp1268
(dp1269
g42
I00
sg43
g49
sg45
(lp1270
g51
asbag833
asbsg58
(lp1271
I11
aI0
aI4
aI36
aI-1
asg43
Vis-evens
p1272
sbag2
(g3
g4
NtRp1273
(dp1274
g7
(lp1275
(((lp1276
I14
aI11
atI00
tp1277
a(((ltI01
tp1278
a(((lp1279
I1
aI10
aI5
aI11
atI00
tp1280
a(((lp1281
I20
aI20
aI26
aI26
aI26
aI2
aI10
atI01
tp1282
a(((lp1283
I15
aI12
aI1
aI11
atI00
tp1284
a(((lp1285
I15
aI9
aI11
aI1
aI9
aI1
aI2
atI00
tp1286
a(((lp1287
I3
aI12
aI15
aI10
aI5
aI4
atI00
tp1288
a(((lp1289
I22
aI14
aI26
atI01
tp1290
a(((lp1291
I2
aI14
atI01
tp1292
a(((lp1293
I30
aI2
atI01
tp1294
asg37
I00
sg38
g2
(g39
g4
NtRp1295
(dp1296
g42
I00
sg43
g44
sg45
(lp1297
g2
(g39
g4
NtRp1298
(dp1299
g42
I00
sg43
g49
sg45
(lp1300
g51
asbag833
asbsg58
(lp1301
I37
aI0
aI103
aI1554
aI-1
asg43
Vis-mod-k with k=2
p1302
sbag2
(g3
g4
NtRp1303
(dp1304
g7
(lp1305
(((lp1306
I9
aI39
aI27
aI45
aI18
atI01
tp1307
a(((ltI01
tp1308
a(((lp1309
I27
aI27
aI30
aI12
aI27
atI01
tp1310
a(((lp1311
I24
aI24
aI30
aI18
aI6
aI9
aI48
atI01
tp1312
a(((lp1313
I9
aI13
aI5
aI6
aI0
aI16
aI12
atI00
tp1314
a(((lp1315
I5
aI16
aI1
aI8
aI14
aI1
atI00
tp1316
a(((lp1317
I3
aI2
aI1
aI11
aI13
atI00
tp1318
a(((lp1319
I15
aI3
aI6
atI01
tp1320
a(((ltI01
tp1321
a(((lp1322
I0
aI8
aI9
aI1
aI6
atI00
tp1323
asg37
I00
sg38
g2
(g39
g4
NtRp1324
(dp1325
g42
I00
sg43
g44
sg45
(lp1326
g2
(g39
g4
NtRp1327
(dp1328
g42
I00
sg43
g49
sg45
(lp1329
g51
asbag833
asbsg58
(lp1330
I43
aI0
aI106
aI2931
aI-1
asg43
Vis-mod-k with k=3
p1331
sbag2
(g3
g4
NtRp1332
(dp1333
g7
(lp1334
(((lp1335
I0
aI15
atI01
tp1336
a(((lp1337
I10
atI01
tp1338
a(((lp1339
I15
aI14
aI11
aI6
aI13
atI00
tp1340
a(((lp1341
I20
aI40
aI20
aI55
aI80
aI70
aI25
atI01
tp1342
a(((lp1343
I11
aI4
aI3
aI11
aI14
aI2
atI00
tp1344
a(((lp1345
I13
aI1
aI13
aI5
aI6
aI3
atI00
tp1346
a(((lp1347
I16
aI11
aI16
atI00
tp1348
a(((lp1349
I0
aI12
aI15
aI3
atI00
tp1350
a(((lp1351
I10
aI15
aI11
aI16
atI00
tp1352
a(((ltI01
tp1353
asg37
I00
sg38
g2
(g39
g4
NtRp1354
(dp1355
g42
I00
sg43
g44
sg45
(lp1356
g2
(g39
g4
NtRp1357
(dp1358
g42
I00
sg43
g49
sg45
(lp1359
g51
asbag833
asbsg58
(lp1360
I38
aI0
aI119
aI4250
aI-1
asg43
Vis-mod-k with k=5
p1361
sbag2
(g3
g4
NtRp1362
(dp1363
g7
(lp1364
(((lp1365
I2
aI0
aI4
atI00
tp1366
a(((lp1367
I2
aI5
aI4
aI2
aI0
aI5
aI1
aI1
atI00
tp1368
asg37
I00
sg38
g2
(g39
g4
NtRp1369
(dp1370
g42
I00
sg43
g44
sg45
(lp1371
g2
(g39
g4
NtRp1372
(dp1373
g42
I00
sg43
g49
sg45
(lp1374
g51
asbag833
asbsg58
(lp1375
I11
aI0
aI4
aI36
aI-1
asg43
Vis-odds
p1376
sbag2
(g3
g4
NtRp1377
(dp1378
g7
(lp1379
(((lp1380
I2
atI01
tp1381
a(((lp1382
I2
aI0
atI00
tp1383
a(((lp1384
I5
aI11
atI01
tp1385
a(((lp1386
I5
aI11
aI12
atI00
tp1387
a(((lp1388
I12
atI00
tp1389
a(((lp1390
I3
aI8
atI00
tp1391
a(((lp1392
I9
aI12
aI6
aI12
aI4
aI4
atI00
tp1393
a(((lp1394
I179
aI17
aI59
aI191
aI83
atI01
tp1395
a(((lp1396
I67
aI127
aI137
aI73
aI53
aI7
atI01
tp1397
a(((lp1398
I113
aI179
atI01
tp1399
asg37
I00
sg38
g2
(g39
g4
NtRp1400
(dp1401
g42
I00
sg43
g44
sg45
(lp1402
g2
(g39
g4
NtRp1403
(dp1404
g42
I00
sg43
g49
sg45
(lp1405
g51
asbag833
asbsg58
(lp1406
I30
aI0
aI372
aI37221
aI-1
asg43
Vis-primes
p1407
sbag2
(g3
g4
NtRp1408
(dp1409
g7
(lp1410
(((lp1411
I25
atI01
tp1412
a(((lp1413
I3
atI00
tp1414
a(((lp1415
I1
aI4
atI01
tp1416
a(((lp1417
I1
aI4
aI9
atI01
tp1418
a(((lp1419
I1
aI4
aI9
aI15
atI00
tp1420
asg37
I00
sg38
g2
(g39
g4
NtRp1421
(dp1422
g42
I00
sg43
g44
sg45
(lp1423
g2
(g39
g4
NtRp1424
(dp1425
g42
I00
sg43
g49
sg45
(lp1426
g51
asbag833
asbsg58
(lp1427
I11
aI0
aI41
aI152
aI-1
asg43
Vis-squares
p1428
sbag2
(g3
g4
NtRp1429
(dp1430
g7
(lp1431
(((lp1432
I3
aI1
aI3
aI4
aI7
aI6
aI9
aI2
at(lp1433
I3
aI6
aI9
atp1434
a(((lp1435
I4
aI2
aI6
aI10
aI8
aI12
at(lp1436
I8
aI12
atp1437
a(((lp1438
I1
aI2
aI3
at(lp1439
I2
aI3
atp1440
a(((lp1441
I9
aI63
aI54
aI18
aI81
aI54
aI2
at(lp1442
I63
aI54
aI18
aI81
aI54
atp1443
a(((lp1444
I1
at(ltp1445
a(((lp1446
I3
at(ltp1447
a(((lp1448
I9
aI72
at(lp1449
I72
atp1450
a(((lp1451
I9
aI12
aI0
aI8
aI6
aI3
aI10
at(lp1452
I0
atp1453
a(((lp1454
I4
aI6
aI7
aI7
aI5
aI13
aI14
at(ltp1455
a(((lp1456
I11
at(ltp1457
asg37
I00
sg38
g2
(g39
g4
NtRp1458
(dp1459
g42
I00
sg43
g44
sg45
(lp1460
g2
(g39
g4
NtRp1461
(dp1462
g42
I00
sg43
g49
sg45
(lp1463
g51
asbag2
(g39
g4
NtRp1464
(dp1465
g42
I00
sg43
g49
sg45
(lp1466
g51
asbasbsg58
(lp1467
I29
aI3
aI22
aI-5670
aI1
asg43
Vkeep-mod-head
p1468
sbag2
(g3
g4
NtRp1469
(dp1470
g7
(lp1471
(((lp1472
I7
aI5
aI15
aI13
aI9
at(ltp1473
a(((lp1474
I11
aI3
aI14
aI2
aI5
at(lp1475
I14
aI2
atp1476
a(((lt(ltp1477
a(((lp1478
I4
aI6
aI3
aI2
aI16
aI15
aI16
at(lp1479
I4
aI6
aI2
aI16
aI16
atp1480
a(((lp1481
I9
aI4
at(lp1482
I4
atp1483
a(((lp1484
I16
aI10
aI2
at(lp1485
I16
aI10
aI2
atp1486
a(((lp1487
I13
aI16
aI8
aI3
aI11
at(lp1488
I16
aI8
atp1489
a(((lp1490
I4
aI7
aI1
aI11
at(lp1491
I4
atp1492
a(((lp1493
I11
aI7
aI5
aI3
aI6
aI10
at(lp1494
I6
aI10
atp1495
a(((lp1496
I14
aI2
aI12
aI4
aI6
aI18
aI6
at(lp1497
I14
aI2
aI12
aI4
aI6
aI18
aI6
atp1498
asg37
I00
sg38
g2
(g39
g4
NtRp1499
(dp1500
g42
I00
sg43
g44
sg45
(lp1501
g2
(g39
g4
NtRp1502
(dp1503
g42
I00
sg43
g49
sg45
(lp1504
g51
asbag2
(g39
g4
NtRp1505
(dp1506
g42
I00
sg43
g49
sg45
(lp1507
g51
asbasbsg58
(lp1508
I21
aI1
aI-8
aI-359
aI1
asg43
Vkeep-mod-k with k=2
p1509
sbag2
(g3
g4
NtRp1510
(dp1511
g7
(lp1512
(((lt(ltp1513
a(((lp1514
I21
aI6
aI2
at(lp1515
I21
aI6
atp1516
a(((lp1517
I16
aI1
aI12
aI8
aI11
at(lp1518
I12
atp1519
a(((lp1520
I6
aI13
at(lp1521
I6
atp1522
a(((lp1523
I15
aI18
aI21
aI27
aI6
aI21
at(lp1524
I15
aI18
aI21
aI27
aI6
aI21
atp1525
a(((lp1526
I6
aI0
aI27
aI15
at(lp1527
I6
aI0
aI27
aI15
atp1528
a(((lt(ltp1529
a(((lp1530
I9
aI14
at(lp1531
I9
atp1532
a(((lt(ltp1533
a(((lp1534
I1
aI7
at(ltp1535
asg37
I00
sg38
g2
(g39
g4
NtRp1536
(dp1537
g42
I00
sg43
g44
sg45
(lp1538
g2
(g39
g4
NtRp1539
(dp1540
g42
I00
sg43
g49
sg45
(lp1541
g51
asbag2
(g39
g4
NtRp1542
(dp1543
g42
I00
sg43
g49
sg45
(lp1544
g51
asbasbsg58
(lp1545
I9
aI1
aI-2
aI-272
aI1
asg43
Vkeep-mod-k with k=3
p1546
sbag2
(g3
g4
NtRp1547
(dp1548
g7
(lp1549
(((lp1550
I6
aI1
aI4
aI15
at(lp1551
I15
atp1552
a(((lp1553
I8
aI10
aI0
aI11
aI8
aI4
aI16
at(lp1554
I10
aI0
atp1555
a(((lp1556
I12
aI6
aI5
aI1
aI2
aI16
aI9
at(lp1557
I5
atp1558
a(((lt(ltp1559
a(((lp1560
I30
at(lp1561
I30
atp1562
a(((lp1563
I15
aI5
aI25
at(lp1564
I15
aI5
aI25
atp1565
a(((lp1566
I5
aI40
aI25
aI20
aI25
at(lp1567
I5
aI40
aI25
aI20
aI25
atp1568
a(((lp1569
I11
aI6
aI7
aI5
aI14
at(lp1570
I5
atp1571
a(((lp1572
I1
aI6
aI7
aI0
aI16
aI11
at(lp1573
I0
atp1574
a(((lt(ltp1575
asg37
I00
sg38
g2
(g39
g4
NtRp1576
(dp1577
g42
I00
sg43
g44
sg45
(lp1578
g2
(g39
g4
NtRp1579
(dp1580
g42
I00
sg43
g49
sg45
(lp1581
g51
asbag2
(g39
g4
NtRp1582
(dp1583
g42
I00
sg43
g49
sg45
(lp1584
g51
asbasbsg58
(lp1585
I23
aI0
aI-5
aI-639
aI1
asg43
Vkeep-mod-k with k=5
p1586
sbag2
(g3
g4
NtRp1587
(dp1588
g7
(lp1589
(((lp1590
I10
aI0
atI0
tp1591
a(((lp1592
I7
aI2
atI2
tp1593
a(((lp1594
I14
aI16
aI0
aI13
aI6
aI4
atI14
tp1595
a(((lp1596
I6
aI9
aI9
atI9
tp1597
a(((lp1598
I3
aI10
aI10
aI7
aI10
aI13
atI10
tp1599
a(((lp1600
I10
aI4
aI0
aI6
aI1
aI4
aI1
atI6
tp1601
a(((lp1602
I6
aI2
aI14
aI8
aI6
aI9
aI4
aI3
aI16
atI14
tp1603
a(((lp1604
I8
aI10
aI0
aI14
aI15
aI6
aI15
aI2
aI12
atI15
tp1605
a(((lp1606
I15
aI4
aI10
aI13
aI0
aI9
aI12
aI2
aI11
atI13
tp1607
a(((lp1608
I6
aI1
aI2
aI2
aI9
aI4
aI9
aI13
atI9
tp1609
asg37
I00
sg38
g2
(g39
g4
NtRp1610
(dp1611
g42
I00
sg43
g44
sg45
(lp1612
g2
(g39
g4
NtRp1613
(dp1614
g42
I00
sg43
g49
sg45
(lp1615
g51
asbag51
asbsg58
(lp1616
I61
aI0
aI27
aI1204
aI0
asg43
Vkth-largest with k=2
p1617
sbag2
(g3
g4
NtRp1618
(dp1619
g7
(lp1620
(((lp1621
I15
aI7
aI9
aI5
aI11
atI9
tp1622
a(((lp1623
I0
aI7
aI11
aI7
aI4
aI9
atI7
tp1624
a(((lp1625
I10
aI2
aI10
atI2
tp1626
a(((lp1627
I4
aI7
aI11
atI4
tp1628
a(((lp1629
I10
aI9
aI16
aI8
aI12
aI13
aI2
aI13
aI2
aI1
atI13
tp1630
a(((lp1631
I13
aI9
aI6
aI0
aI3
aI5
aI10
aI5
aI14
atI10
tp1632
a(((lp1633
I5
aI3
aI10
aI1
aI10
aI15
aI13
aI16
atI13
tp1634
a(((lp1635
I12
aI1
aI11
atI1
tp1636
a(((lp1637
I1
aI9
aI9
aI12
atI9
tp1638
a(((lp1639
I6
aI13
aI13
aI8
aI16
atI13
tp1640
asg37
I00
sg38
g2
(g39
g4
NtRp1641
(dp1642
g42
I00
sg43
g44
sg45
(lp1643
g2
(g39
g4
NtRp1644
(dp1645
g42
I00
sg43
g49
sg45
(lp1646
g51
asbag51
asbsg58
(lp1647
I56
aI0
aI2
aI1061
aI0
asg43
Vkth-largest with k=3
p1648
sbag2
(g3
g4
NtRp1649
(dp1650
g7
(lp1651
(((lp1652
I2
aI1
aI16
aI9
aI1
aI3
aI9
aI14
atI1
tp1653
a(((lp1654
I16
aI2
aI8
aI12
aI11
aI9
aI16
atI8
tp1655
a(((lp1656
I12
aI5
aI1
aI0
aI13
atI1
tp1657
a(((lp1658
I14
aI11
aI10
aI8
aI2
aI4
aI11
aI10
atI4
tp1659
a(((lp1660
I14
aI11
aI12
atI12
tp1661
a(((lp1662
I7
aI15
atI15
tp1663
a(((lp1664
I14
aI0
aI14
aI4
aI11
aI16
aI11
atI4
tp1665
a(((lp1666
I15
aI15
aI5
aI12
aI1
aI9
atI5
tp1667
a(((lp1668
I3
aI9
aI8
aI5
aI1
aI13
aI7
atI3
tp1669
a(((lp1670
I2
aI15
aI15
aI7
aI15
aI0
aI1
atI1
tp1671
asg37
I00
sg38
g2
(g39
g4
NtRp1672
(dp1673
g42
I00
sg43
g44
sg45
(lp1674
g2
(g39
g4
NtRp1675
(dp1676
g42
I00
sg43
g49
sg45
(lp1677
g51
asbag51
asbsg58
(lp1678
I60
aI0
aI-31
aI1468
aI0
asg43
Vkth-smallest with k=2
p1679
sbag2
(g3
g4
NtRp1680
(dp1681
g7
(lp1682
(((lp1683
I3
aI6
aI3
aI0
aI14
aI11
aI0
atI3
tp1684
a(((lp1685
I10
aI7
aI1
atI10
tp1686
a(((lp1687
I5
aI7
aI11
atI11
tp1688
a(((lp1689
I9
aI10
aI3
aI8
aI11
aI7
aI15
atI8
tp1690
a(((lp1691
I2
aI11
aI3
aI13
aI15
aI9
aI9
aI5
atI5
tp1692
a(((lp1693
I16
aI3
aI12
aI10
aI8
aI12
atI10
tp1694
a(((lp1695
I5
aI15
aI5
aI5
aI5
aI6
aI14
aI7
aI10
aI12
atI5
tp1696
a(((lp1697
I3
aI7
aI0
aI16
aI4
aI14
aI16
aI4
atI4
tp1698
a(((lp1699
I7
aI1
aI6
aI8
aI3
aI9
aI0
atI3
tp1700
a(((lp1701
I14
aI5
aI6
aI0
aI0
aI7
aI7
aI7
atI5
tp1702
asg37
I00
sg38
g2
(g39
g4
NtRp1703
(dp1704
g42
I00
sg43
g44
sg45
(lp1705
g2
(g39
g4
NtRp1706
(dp1707
g42
I00
sg43
g49
sg45
(lp1708
g51
asbag51
asbsg58
(lp1709
I67
aI0
aI-6
aI1228
aI0
asg43
Vkth-smallest with k=3
p1710
sbag2
(g3
g4
NtRp1711
(dp1712
g7
(lp1713
(((lp1714
I1
aI2
aI3
atI3
tp1715
a(((lp1716
I0
atI0
tp1717
a(((lp1718
I1
aI1
aI2
aI1
atI1
tp1719
asg37
I00
sg38
g2
(g39
g4
NtRp1720
(dp1721
g42
I00
sg43
g44
sg45
(lp1722
g2
(g39
g4
NtRp1723
(dp1724
g42
I00
sg43
g49
sg45
(lp1725
g51
asbag51
asbsg58
(lp1726
I8
aI0
aI1
aI3
aI0
asg43
Vlast
p1727
sbag2
(g3
g4
NtRp1728
(dp1729
g7
(lp1730
(((lp1731
I1
aI2
aI3
atI3
tp1732
a(((lp1733
I0
atI1
tp1734
a(((lp1735
I1
aI1
aI2
aI1
atI4
tp1736
a(((lp1737
I16
aI0
aI10
aI9
aI15
aI7
atI6
tp1738
a(((ltI0
tp1739
a(((lp1740
I2
aI13
aI4
atI3
tp1741
a(((lp1742
I8
aI10
aI7
aI9
aI10
aI7
aI3
atI7
tp1743
a(((lp1744
I0
aI7
aI6
aI1
aI16
aI14
atI6
tp1745
a(((lp1746
I6
aI13
aI8
atI3
tp1747
a(((lp1748
I4
aI16
aI15
aI6
aI15
aI7
atI6
tp1749
asg37
I00
sg38
g2
(g39
g4
NtRp1750
(dp1751
g42
I00
sg43
g44
sg45
(lp1752
g2
(g39
g4
NtRp1753
(dp1754
g42
I00
sg43
g49
sg45
(lp1755
g51
asbag51
asbsg58
(lp1756
I39
aI4
aI-12
aI671
aI0
asg43
Vlen
p1757
sbag2
(g3
g4
NtRp1758
(dp1759
g7
(lp1760
(((lp1761
I1
aI2
aI3
atI3
tp1762
a(((lp1763
I0
atI0
tp1764
a(((lp1765
I1
aI1
aI2
aI1
atI2
tp1766
asg37
I00
sg38
g2
(g39
g4
NtRp1767
(dp1768
g42
I00
sg43
g44
sg45
(lp1769
g2
(g39
g4
NtRp1770
(dp1771
g42
I00
sg43
g49
sg45
(lp1772
g51
asbag51
asbsg58
(lp1773
I8
aI0
aI2
aI3
aI0
asg43
Vmax
p1774
sbag2
(g3
g4
NtRp1775
(dp1776
g7
(lp1777
(((lp1778
I1
aI2
aI3
atI1
tp1779
a(((lp1780
I0
atI0
tp1781
a(((lp1782
I1
aI1
aI2
aI1
atI1
tp1783
a(((lp1784
I6
atI6
tp1785
a(((lp1786
I4
aI13
aI1
aI1
aI15
aI11
atI1
tp1787
a(((lp1788
I12
aI6
aI10
aI11
aI6
aI2
aI13
atI2
tp1789
a(((lp1790
I4
atI4
tp1791
a(((lp1792
I16
aI15
atI15
tp1793
a(((lp1794
I11
aI5
aI7
aI15
aI16
atI5
tp1795
a(((lp1796
I15
atI15
tp1797
asg37
I00
sg38
g2
(g39
g4
NtRp1798
(dp1799
g42
I00
sg43
g44
sg45
(lp1800
g2
(g39
g4
NtRp1801
(dp1802
g42
I00
sg43
g49
sg45
(lp1803
g51
asbag51
asbsg58
(lp1804
I31
aI0
aI-18
aI395
aI0
asg43
Vmin
p1805
sbag2
(g3
g4
NtRp1806
(dp1807
g7
(lp1808
(((lp1809
I15
aI11
aI2
aI13
at(lp1810
I1
aI1
aI0
aI1
atp1811
a(((lp1812
I7
at(lp1813
I1
atp1814
a(((lp1815
I12
aI8
at(lp1816
I0
aI0
atp1817
a(((lt(ltp1818
a(((lp1819
I16
at(lp1820
I0
atp1821
a(((lp1822
I4
aI12
aI6
at(lp1823
I0
aI0
aI0
atp1824
a(((lp1825
I4
aI5
aI6
aI9
aI9
aI14
aI11
at(lp1826
I0
aI1
aI0
aI1
aI1
aI0
aI1
atp1827
a(((lp1828
I6
aI4
aI14
aI16
aI4
at(lp1829
I0
aI0
aI0
aI0
aI0
atp1830
a(((lp1831
I15
aI16
aI9
aI13
aI12
aI7
at(lp1832
I1
aI0
aI1
aI1
aI0
aI1
atp1833
a(((lp1834
I14
aI0
aI9
aI14
aI12
aI16
at(lp1835
I0
aI0
aI1
aI0
aI0
aI0
atp1836
asg37
I00
sg38
g2
(g39
g4
NtRp1837
(dp1838
g42
I00
sg43
g44
sg45
(lp1839
g2
(g39
g4
NtRp1840
(dp1841
g42
I00
sg43
g49
sg45
(lp1842
g51
asbag2
(g39
g4
NtRp1843
(dp1844
g42
I00
sg43
g49
sg45
(lp1845
g51
asbasbsg58
(lp1846
I0
aI6
aI-87
aI-575
aI1
asg43
Vmodulo-k with k=2
p1847
sbag2
(g3
g4
NtRp1848
(dp1849
g7
(lp1850
(((lp1851
I2
aI14
aI14
aI10
aI7
aI12
aI6
at(lp1852
I2
aI2
aI2
aI1
aI1
aI0
aI0
atp1853
a(((lp1854
I2
aI9
aI2
at(lp1855
I2
aI0
aI2
atp1856
a(((lp1857
I15
aI15
aI15
aI9
aI11
aI16
aI2
at(lp1858
I0
aI0
aI0
aI0
aI2
aI1
aI2
atp1859
a(((lp1860
I14
aI8
aI2
aI2
at(lp1861
I2
aI2
aI2
aI2
atp1862
a(((lp1863
I5
aI6
aI11
aI15
aI16
at(lp1864
I2
aI0
aI2
aI0
aI1
atp1865
a(((lp1866
I9
at(lp1867
I0
atp1868
a(((lp1869
I1
aI16
at(lp1870
I1
aI1
atp1871
a(((lp1872
I12
aI11
at(lp1873
I0
aI2
atp1874
a(((lp1875
I9
aI2
aI4
at(lp1876
I0
aI2
aI1
atp1877
a(((lp1878
I2
aI8
aI15
aI13
aI3
aI6
at(lp1879
I2
aI2
aI0
aI1
aI0
aI0
atp1880
asg37
I00
sg38
g2
(g39
g4
NtRp1881
(dp1882
g42
I00
sg43
g44
sg45
(lp1883
g2
(g39
g4
NtRp1884
(dp1885
g42
I00
sg43
g49
sg45
(lp1886
g51
asbag2
(g39
g4
NtRp1887
(dp1888
g42
I00
sg43
g49
sg45
(lp1889
g51
asbasbsg58
(lp1890
I0
aI3
aI-72
aI-765
aI1
asg43
Vmodulo-k with k=3
p1891
sbag2
(g3
g4
NtRp1892
(dp1893
g7
(lp1894
(((lp1895
I1
at(lp1896
I1
atp1897
a(((lp1898
I7
aI2
aI11
aI1
aI6
at(lp1899
I1
aI2
aI5
aI1
aI0
atp1900
a(((lp1901
I16
aI9
aI13
aI14
aI10
aI11
at(lp1902
I4
aI3
aI1
aI2
aI4
aI5
atp1903
a(((lp1904
I15
aI1
aI8
aI7
aI10
at(lp1905
I3
aI1
aI2
aI1
aI4
atp1906
a(((lp1907
I9
aI6
aI1
aI4
aI13
aI7
aI6
at(lp1908
I3
aI0
aI1
aI4
aI1
aI1
aI0
atp1909
a(((lp1910
I16
aI10
aI8
at(lp1911
I4
aI4
aI2
atp1912
a(((lp1913
I4
aI8
aI12
aI12
aI9
aI13
at(lp1914
I4
aI2
aI0
aI0
aI3
aI1
atp1915
a(((lp1916
I10
aI13
aI13
aI11
aI1
aI16
at(lp1917
I4
aI1
aI1
aI5
aI1
aI4
atp1918
a(((lp1919
I14
aI1
aI7
aI1
aI4
aI11
aI13
at(lp1920
I2
aI1
aI1
aI1
aI4
aI5
aI1
atp1921
a(((lp1922
I9
aI0
aI6
aI3
at(lp1923
I3
aI0
aI0
aI3
atp1924
asg37
I00
sg38
g2
(g39
g4
NtRp1925
(dp1926
g42
I00
sg43
g44
sg45
(lp1927
g2
(g39
g4
NtRp1928
(dp1929
g42
I00
sg43
g49
sg45
(lp1930
g51
asbag2
(g39
g4
NtRp1931
(dp1932
g42
I00
sg43
g49
sg45
(lp1933
g51
asbasbsg58
(lp1934
I0
aI2
aI-56
aI-634
aI1
asg43
Vmodulo-k with k=6
p1935
sbag2
(g3
g4
NtRp1936
(dp1937
g7
(lp1938
(((lp1939
I5
aI14
aI3
aI15
at(lp1940
I10
aI28
aI6
aI30
atp1941
a(((lp1942
I14
aI16
aI16
aI9
aI11
aI15
aI13
at(lp1943
I28
aI32
aI32
aI18
aI22
aI30
aI26
atp1944
a(((lp1945
I13
aI9
aI14
aI5
aI7
at(lp1946
I26
aI18
aI28
aI10
aI14
atp1947
a(((lp1948
I2
aI16
at(lp1949
I4
aI32
atp1950
a(((lp1951
I6
aI1
at(lp1952
I12
aI2
atp1953
a(((lt(ltp1954
a(((lp1955
I2
at(lp1956
I4
atp1957
a(((lp1958
I6
aI7
aI5
aI3
aI10
aI1
at(lp1959
I12
aI14
aI10
aI6
aI20
aI2
atp1960
a(((lp1961
I13
aI1
aI10
aI7
aI2
aI4
aI2
at(lp1962
I26
aI2
aI20
aI14
aI4
aI8
aI4
atp1963
a(((lp1964
I5
aI1
aI15
aI6
at(lp1965
I10
aI2
aI30
aI12
atp1966
asg37
I00
sg38
g2
(g39
g4
NtRp1967
(dp1968
g42
I00
sg43
g44
sg45
(lp1969
g2
(g39
g4
NtRp1970
(dp1971
g42
I00
sg43
g49
sg45
(lp1972
g51
asbag2
(g39
g4
NtRp1973
(dp1974
g42
I00
sg43
g49
sg45
(lp1975
g51
asbasbsg58
(lp1976
I0
aI5
aI65
aI1813
aI1
asg43
Vmult-k with k=2
p1977
sbag2
(g3
g4
NtRp1978
(dp1979
g7
(lp1980
(((lp1981
I14
aI2
aI4
aI9
aI9
aI1
at(lp1982
I42
aI6
aI12
aI27
aI27
aI3
atp1983
a(((lp1984
I0
aI7
aI9
aI4
aI13
at(lp1985
I0
aI21
aI27
aI12
aI39
atp1986
a(((lp1987
I7
aI6
aI0
aI11
at(lp1988
I21
aI18
aI0
aI33
atp1989
a(((lp1990
I7
aI7
aI16
aI4
at(lp1991
I21
aI21
aI48
aI12
atp1992
a(((lp1993
I5
aI14
aI0
aI16
aI14
aI7
at(lp1994
I15
aI42
aI0
aI48
aI42
aI21
atp1995
a(((lp1996
I15
at(lp1997
I45
atp1998
a(((lp1999
I1
aI12
aI11
aI0
aI0
aI0
aI3
at(lp2000
I3
aI36
aI33
aI0
aI0
aI0
aI9
atp2001
a(((lt(ltp2002
a(((lp2003
I0
aI12
aI15
aI9
aI11
at(lp2004
I0
aI36
aI45
aI27
aI33
atp2005
a(((lp2006
I16
at(lp2007
I48
atp2008
asg37
I00
sg38
g2
(g39
g4
NtRp2009
(dp2010
g42
I00
sg43
g44
sg45
(lp2011
g2
(g39
g4
NtRp2012
(dp2013
g42
I00
sg43
g49
sg45
(lp2014
g51
asbag2
(g39
g4
NtRp2015
(dp2016
g42
I00
sg43
g49
sg45
(lp2017
g51
asbasbsg58
(lp2018
I0
aI2
aI163
aI6918
aI1
asg43
Vmult-k with k=3
p2019
sbag2
(g3
g4
NtRp2020
(dp2021
g7
(lp2022
(((lp2023
I5
at(lp2024
I-10
atp2025
a(((lp2026
I3
aI1
aI15
aI13
at(lp2027
I-6
aI-2
aI-30
aI-26
atp2028
a(((lt(ltp2029
a(((lp2030
I6
aI10
aI4
at(lp2031
I-12
aI-20
aI-8
atp2032
a(((lp2033
I15
at(lp2034
I-30
atp2035
a(((lp2036
I8
aI8
aI12
aI11
aI13
at(lp2037
I-16
aI-16
aI-24
aI-22
aI-26
atp2038
a(((lp2039
I11
aI12
aI16
aI8
aI7
at(lp2040
I-22
aI-24
aI-32
aI-16
aI-14
atp2041
a(((lp2042
I2
aI10
aI16
at(lp2043
I-4
aI-20
aI-32
atp2044
a(((lp2045
I12
aI6
aI8
aI15
aI15
aI16
aI4
at(lp2046
I-24
aI-12
aI-16
aI-30
aI-30
aI-32
aI-8
atp2047
a(((lp2048
I6
aI11
aI9
aI11
aI7
aI4
aI15
at(lp2049
I-12
aI-22
aI-18
aI-22
aI-14
aI-8
aI-30
atp2050
asg37
I00
sg38
g2
(g39
g4
NtRp2051
(dp2052
g42
I00
sg43
g44
sg45
(lp2053
g2
(g39
g4
NtRp2054
(dp2055
g42
I00
sg43
g49
sg45
(lp2056
g51
asbag2
(g39
g4
NtRp2057
(dp2058
g42
I00
sg43
g49
sg45
(lp2059
g51
asbasbsg58
(lp2060
I0
aI6
aI-254
aI1673
aI1
asg43
Vmult-k with k=-2
p2061
sbag2
(g3
g4
NtRp2062
(dp2063
g7
(lp2064
(((lp2065
I0
aI7
aI14
aI16
at(lp2066
I0
aI63
aI126
aI144
atp2067
a(((lp2068
I11
aI10
aI10
aI7
aI12
aI12
aI2
at(lp2069
I99
aI90
aI90
aI63
aI108
aI108
aI18
atp2070
a(((lp2071
I11
aI16
aI3
aI16
aI3
aI13
at(lp2072
I99
aI144
aI27
aI144
aI27
aI117
atp2073
a(((lp2074
I10
aI8
aI8
aI12
aI15
at(lp2075
I90
aI72
aI72
aI108
aI135
atp2076
a(((lp2077
I13
aI13
at(lp2078
I117
aI117
atp2079
a(((lp2080
I8
aI1
aI7
aI5
aI15
at(lp2081
I72
aI9
aI63
aI45
aI135
atp2082
a(((lp2083
I5
aI7
aI0
at(lp2084
I45
aI63
aI0
atp2085
a(((lp2086
I14
aI15
aI6
aI9
aI16
at(lp2087
I126
aI135
aI54
aI81
aI144
atp2088
a(((lp2089
I10
aI14
aI11
aI0
aI16
aI11
at(lp2090
I90
aI126
aI99
aI0
aI144
aI99
atp2091
a(((lt(ltp2092
asg37
I00
sg38
g2
(g39
g4
NtRp2093
(dp2094
g42
I00
sg43
g44
sg45
(lp2095
g2
(g39
g4
NtRp2096
(dp2097
g42
I00
sg43
g49
sg45
(lp2098
g51
asbag2
(g39
g4
NtRp2099
(dp2100
g42
I00
sg43
g49
sg45
(lp2101
g51
asbasbsg58
(lp2102
I0
aI2
aI687
aI64663
aI1
asg43
Vmult-k with k=9
p2103
sbag2
(g3
g4
NtRp2104
(dp2105
g7
(lp2106
(((lp2107
I1
aI1
aI3
at(lp2108
I1
aI1
aI3
atp2109
a(((lp2110
I2
aI5
aI4
aI2
aI0
aI5
aI1
aI1
at(lp2111
I5
aI5
aI1
aI1
atp2112
asg37
I00
sg38
g2
(g39
g4
NtRp2113
(dp2114
g42
I00
sg43
g44
sg45
(lp2115
g2
(g39
g4
NtRp2116
(dp2117
g42
I00
sg43
g49
sg45
(lp2118
g51
asbag2
(g39
g4
NtRp2119
(dp2120
g42
I00
sg43
g49
sg45
(lp2121
g51
asbasbsg58
(lp2122
I4
aI0
aI1
aI-12
aI1
asg43
Vodds
p2123
sbag2
(g3
g4
NtRp2124
(dp2125
g7
(lp2126
(((lp2127
I1
aI2
aI3
at(lp2128
I1
aI2
atp2129
a(((lp2130
I0
at(ltp2131
a(((lp2132
I1
aI1
aI2
aI1
at(lp2133
I1
aI1
aI2
atp2134
a(((lp2135
I6
aI2
aI3
at(lp2136
I6
aI2
atp2137
a(((lp2138
I12
aI5
aI1
aI1
aI9
aI5
aI15
at(lp2139
I12
aI5
aI1
aI1
aI9
aI5
atp2140
a(((lp2141
I10
aI10
at(lp2142
I10
atp2143
a(((lp2144
I6
at(ltp2145
a(((lp2146
I7
aI11
aI13
aI11
aI7
aI10
aI9
at(lp2147
I7
aI11
aI13
aI11
aI7
aI10
atp2148
a(((lp2149
I10
aI2
aI8
at(lp2150
I10
aI2
atp2151
a(((lp2152
I6
aI7
aI3
aI5
aI4
aI3
at(lp2153
I6
aI7
aI3
aI5
aI4
atp2154
asg37
I00
sg38
g2
(g39
g4
NtRp2155
(dp2156
g42
I00
sg43
g44
sg45
(lp2157
g2
(g39
g4
NtRp2158
(dp2159
g42
I00
sg43
g49
sg45
(lp2160
g51
asbag2
(g39
g4
NtRp2161
(dp2162
g42
I00
sg43
g49
sg45
(lp2163
g51
asbasbsg58
(lp2164
I10
aI2
aI-6
aI-94
aI1
asg43
Vpop
p2165
sbag2
(g3
g4
NtRp2166
(dp2167
g7
(lp2168
(((lt(lp2169
I2
atp2170
a(((lt(lp2171
I2
atp2172
a(((lt(lp2173
I2
atp2174
a(((lt(lp2175
I2
atp2176
a(((lp2177
I7
aI4
aI3
at(lp2178
I2
aI7
aI4
aI3
atp2179
a(((lp2180
I12
aI13
aI4
at(lp2181
I2
aI12
aI13
aI4
atp2182
a(((lp2183
I2
at(lp2184
I2
aI2
atp2185
a(((lp2186
I7
aI5
aI13
aI16
at(lp2187
I2
aI7
aI5
aI13
aI16
atp2188
a(((lt(lp2189
I2
atp2190
a(((lt(lp2191
I2
atp2192
asg37
I00
sg38
g2
(g39
g4
NtRp2193
(dp2194
g42
I00
sg43
g44
sg45
(lp2195
g2
(g39
g4
NtRp2196
(dp2197
g42
I00
sg43
g49
sg45
(lp2198
g51
asbag2
(g39
g4
NtRp2199
(dp2200
g42
I00
sg43
g49
sg45
(lp2201
g51
asbasbsg58
(lp2202
I-10
aI0
aI8
aI105
aI1
asg43
Vprepend-k with k=2
p2203
sbag2
(g3
g4
NtRp2204
(dp2205
g7
(lp2206
(((lp2207
I6
aI16
aI3
aI12
aI5
aI13
at(lp2208
I3
aI6
aI16
aI3
aI12
aI5
aI13
atp2209
a(((lp2210
I12
aI13
aI5
at(lp2211
I3
aI12
aI13
aI5
atp2212
a(((lp2213
I9
aI6
aI1
aI0
at(lp2214
I3
aI9
aI6
aI1
aI0
atp2215
a(((lp2216
I9
at(lp2217
I3
aI9
atp2218
a(((lp2219
I2
aI1
aI7
aI3
aI15
aI2
at(lp2220
I3
aI2
aI1
aI7
aI3
aI15
aI2
atp2221
a(((lp2222
I15
aI8
aI15
aI9
aI13
aI16
at(lp2223
I3
aI15
aI8
aI15
aI9
aI13
aI16
atp2224
a(((lp2225
I10
aI14
aI10
aI2
at(lp2226
I3
aI10
aI14
aI10
aI2
atp2227
a(((lp2228
I11
aI14
aI14
aI15
aI16
at(lp2229
I3
aI11
aI14
aI14
aI15
aI16
atp2230
a(((lt(lp2231
I3
atp2232
a(((lp2233
I12
aI9
aI8
aI1
aI15
at(lp2234
I3
aI12
aI9
aI8
aI1
aI15
atp2235
asg37
I00
sg38
g2
(g39
g4
NtRp2236
(dp2237
g42
I00
sg43
g44
sg45
(lp2238
g2
(g39
g4
NtRp2239
(dp2240
g42
I00
sg43
g49
sg45
(lp2241
g51
asbag2
(g39
g4
NtRp2242
(dp2243
g42
I00
sg43
g49
sg45
(lp2244
g51
asbasbsg58
(lp2245
I-10
aI0
aI-11
aI340
aI1
asg43
Vprepend-k with k=3
p2246
sbag2
(g3
g4
NtRp2247
(dp2248
g7
(lp2249
(((lt(lp2250
I-2
atp2251
a(((lp2252
I11
aI0
aI11
aI8
aI3
aI13
at(lp2253
I-2
aI11
aI0
aI11
aI8
aI3
aI13
atp2254
a(((lp2255
I8
aI14
aI9
aI5
at(lp2256
I-2
aI8
aI14
aI9
aI5
atp2257
a(((lp2258
I5
aI11
aI2
aI6
aI3
aI14
aI7
at(lp2259
I-2
aI5
aI11
aI2
aI6
aI3
aI14
aI7
atp2260
a(((lp2261
I2
aI10
aI2
at(lp2262
I-2
aI2
aI10
aI2
atp2263
a(((lp2264
I14
at(lp2265
I-2
aI14
atp2266
a(((lp2267
I16
aI4
aI9
aI15
at(lp2268
I-2
aI16
aI4
aI9
aI15
atp2269
a(((lp2270
I8
aI5
aI7
at(lp2271
I-2
aI8
aI5
aI7
atp2272
a(((lp2273
I7
aI6
aI0
aI14
aI6
aI12
at(lp2274
I-2
aI7
aI6
aI0
aI14
aI6
aI12
atp2275
a(((lp2276
I4
aI14
aI15
aI12
aI1
at(lp2277
I-2
aI4
aI14
aI15
aI12
aI1
atp2278
asg37
I00
sg38
g2
(g39
g4
NtRp2279
(dp2280
g42
I00
sg43
g44
sg45
(lp2281
g2
(g39
g4
NtRp2282
(dp2283
g42
I00
sg43
g49
sg45
(lp2284
g51
asbag2
(g39
g4
NtRp2285
(dp2286
g42
I00
sg43
g49
sg45
(lp2287
g51
asbasbsg58
(lp2288
I-10
aI0
aI-24
aI779
aI1
asg43
Vprepend-k with k=-2
p2289
sbag2
(g3
g4
NtRp2290
(dp2291
g7
(lp2292
(((lp2293
I7
aI5
aI4
at(lp2294
I3
aI7
aI5
aI4
atp2295
a(((lt(lp2296
I3
atp2297
a(((lp2298
I7
aI16
aI2
at(lp2299
I3
aI7
aI16
aI2
atp2300
a(((lp2301
I14
aI9
aI3
aI8
aI3
aI6
at(lp2302
I3
aI14
aI9
aI3
aI8
aI3
aI6
atp2303
a(((lp2304
I2
aI9
aI2
aI1
aI6
aI16
at(lp2305
I3
aI2
aI9
aI2
aI1
aI6
aI16
atp2306
a(((lp2307
I12
aI3
aI5
aI1
aI8
at(lp2308
I3
aI12
aI3
aI5
aI1
aI8
atp2309
a(((lp2310
I2
at(lp2311
I3
aI2
atp2312
a(((lp2313
I14
aI2
aI2
aI3
aI10
at(lp2314
I3
aI14
aI2
aI2
aI3
aI10
atp2315
a(((lp2316
I8
aI5
aI6
at(lp2317
I3
aI8
aI5
aI6
atp2318
a(((lp2319
I11
aI0
aI2
aI4
aI3
at(lp2320
I3
aI11
aI0
aI2
aI4
aI3
atp2321
asg37
I00
sg38
g2
(g39
g4
NtRp2322
(dp2323
g42
I00
sg43
g44
sg45
(lp2324
g2
(g39
g4
NtRp2325
(dp2326
g42
I00
sg43
g49
sg45
(lp2327
g51
asbag2
(g39
g4
NtRp2328
(dp2329
g42
I00
sg43
g49
sg45
(lp2330
g51
asbasbsg58
(lp2331
I-10
aI0
aI-4
aI84
aI1
asg43
Vprepend-k with k=3
p2332
sbag2
(g3
g4
NtRp2333
(dp2334
g7
(lp2335
(((lp2336
I1
aI2
aI3
atI6
tp2337
a(((lp2338
I0
atI0
tp2339
a(((lp2340
I1
aI1
aI2
aI1
atI2
tp2341
asg37
I00
sg38
g2
(g39
g4
NtRp2342
(dp2343
g42
I00
sg43
g44
sg45
(lp2344
g2
(g39
g4
NtRp2345
(dp2346
g42
I00
sg43
g49
sg45
(lp2347
g51
asbag51
asbsg58
(lp2348
I8
aI1
aI5
aI3
aI0
asg43
Vproduct
p2349
sbag2
(g3
g4
NtRp2350
(dp2351
g7
(lp2352
(((lp2353
I13
aI1
at(lp2354
I13
atp2355
a(((lp2356
I5
aI14
aI0
aI7
aI5
aI0
at(lp2357
I5
aI0
aI7
aI5
aI0
atp2358
a(((lp2359
I14
aI16
aI8
aI0
aI11
aI8
aI6
aI8
at(lp2360
I14
aI8
aI0
aI11
aI8
aI6
aI8
atp2361
a(((lp2362
I3
aI10
aI2
aI6
aI3
aI14
aI3
aI5
aI8
at(lp2363
I3
aI2
aI6
aI3
aI14
aI3
aI5
aI8
atp2364
a(((lp2365
I6
aI15
aI14
aI14
at(lp2366
I6
aI14
aI14
atp2367
a(((lp2368
I14
aI9
aI3
aI7
at(lp2369
I14
aI3
aI7
atp2370
a(((lp2371
I4
aI10
aI4
aI6
aI8
at(lp2372
I4
aI4
aI6
aI8
atp2373
a(((lp2374
I13
aI3
aI4
aI7
at(lp2375
I13
aI4
aI7
atp2376
a(((lp2377
I10
aI1
at(lp2378
I10
atp2379
a(((lp2380
I7
aI5
aI12
aI5
at(lp2381
I7
aI12
aI5
atp2382
asg37
I00
sg38
g2
(g39
g4
NtRp2383
(dp2384
g42
I00
sg43
g44
sg45
(lp2385
g2
(g39
g4
NtRp2386
(dp2387
g42
I00
sg43
g49
sg45
(lp2388
g51
asbag2
(g39
g4
NtRp2389
(dp2390
g42
I00
sg43
g49
sg45
(lp2391
g51
asbasbsg58
(lp2392
I10
aI0
aI8
aI-336
aI1
asg43
Vremove-index-k with k=2
p2393
sbag2
(g3
g4
NtRp2394
(dp2395
g7
(lp2396
(((lp2397
I10
aI7
aI2
aI3
aI0
at(lp2398
I10
aI7
aI3
aI0
atp2399
a(((lp2400
I8
aI4
aI14
aI16
aI7
at(lp2401
I8
aI4
aI16
aI7
atp2402
a(((lp2403
I5
aI6
aI13
aI10
aI1
at(lp2404
I5
aI6
aI10
aI1
atp2405
a(((lp2406
I9
aI8
aI14
aI8
aI2
aI11
aI2
aI11
aI14
at(lp2407
I9
aI8
aI8
aI2
aI11
aI2
aI11
aI14
atp2408
a(((lp2409
I1
aI13
aI8
aI13
aI12
aI16
aI4
aI3
aI14
at(lp2410
I1
aI13
aI13
aI12
aI16
aI4
aI3
aI14
atp2411
a(((lp2412
I13
aI3
aI1
aI16
aI7
aI13
aI4
aI9
aI3
at(lp2413
I13
aI3
aI16
aI7
aI13
aI4
aI9
aI3
atp2414
a(((lp2415
I3
aI4
aI15
aI2
aI9
at(lp2416
I3
aI4
aI2
aI9
atp2417
a(((lp2418
I4
aI13
aI10
aI1
aI9
aI16
aI7
aI2
aI0
aI7
at(lp2419
I4
aI13
aI1
aI9
aI16
aI7
aI2
aI0
aI7
atp2420
a(((lp2421
I3
aI8
aI3
aI8
aI13
aI1
aI15
aI16
aI11
at(lp2422
I3
aI8
aI8
aI13
aI1
aI15
aI16
aI11
atp2423
a(((lp2424
I11
aI15
aI0
aI14
at(lp2425
I11
aI15
aI14
atp2426
asg37
I00
sg38
g2
(g39
g4
NtRp2427
(dp2428
g42
I00
sg43
g44
sg45
(lp2429
g2
(g39
g4
NtRp2430
(dp2431
g42
I00
sg43
g49
sg45
(lp2432
g51
asbag2
(g39
g4
NtRp2433
(dp2434
g42
I00
sg43
g49
sg45
(lp2435
g51
asbasbsg58
(lp2436
I10
aI0
aI1
aI-441
aI1
asg43
Vremove-index-k with k=3
p2437
sbag2
(g3
g4
NtRp2438
(dp2439
g7
(lp2440
(((lp2441
I3
aI1
aI3
aI4
aI7
aI6
aI9
aI2
at(lp2442
I1
aI4
aI7
aI2
atp2443
a(((lp2444
I4
aI2
aI6
aI10
aI8
aI12
at(lp2445
I2
aI6
aI10
atp2446
a(((lp2447
I1
aI2
aI3
at(ltp2448
asg37
I00
sg38
g2
(g39
g4
NtRp2449
(dp2450
g42
I00
sg43
g44
sg45
(lp2451
g2
(g39
g4
NtRp2452
(dp2453
g42
I00
sg43
g49
sg45
(lp2454
g51
asbag2
(g39
g4
NtRp2455
(dp2456
g42
I00
sg43
g49
sg45
(lp2457
g51
asbasbsg58
(lp2458
I10
aI1
aI-4
aI-71
aI1
asg43
Vremove-mod-head
p2459
sbag2
(g3
g4
NtRp2460
(dp2461
g7
(lp2462
(((lp2463
I7
at(lp2464
I7
atp2465
a(((lp2466
I13
aI16
aI14
aI6
aI6
aI0
aI3
at(lp2467
I13
aI3
atp2468
a(((lt(ltp2469
a(((lp2470
I2
aI6
aI14
aI0
aI15
aI6
at(lp2471
I15
atp2472
a(((lp2473
I14
at(ltp2474
a(((lt(ltp2475
a(((lp2476
I2
aI2
aI0
aI11
aI18
aI0
at(lp2477
I11
atp2478
a(((lp2479
I15
aI16
aI2
aI2
aI6
aI0
at(lp2480
I15
atp2481
a(((lp2482
I9
aI2
at(lp2483
I9
atp2484
a(((lp2485
I7
aI5
aI8
aI0
aI3
aI16
at(lp2486
I7
aI5
aI3
atp2487
asg37
I00
sg38
g2
(g39
g4
NtRp2488
(dp2489
g42
I00
sg43
g44
sg45
(lp2490
g2
(g39
g4
NtRp2491
(dp2492
g42
I00
sg43
g49
sg45
(lp2493
g51
asbag2
(g39
g4
NtRp2494
(dp2495
g42
I00
sg43
g49
sg45
(lp2496
g51
asbasbsg58
(lp2497
I25
aI1
aI12
aI-1051
aI1
asg43
Vremove-mod-k with k=2
p2498
sbag2
(g3
g4
NtRp2499
(dp2500
g7
(lp2501
(((lt(ltp2502
a(((lp2503
I21
aI15
at(ltp2504
a(((lp2505
I8
at(lp2506
I8
atp2507
a(((lp2508
I16
aI11
aI21
at(lp2509
I16
aI11
atp2510
a(((lp2511
I27
aI21
at(ltp2512
a(((lp2513
I9
aI11
aI11
aI15
aI3
aI3
at(lp2514
I11
aI11
atp2515
a(((lp2516
I10
aI7
aI12
at(lp2517
I10
aI7
atp2518
a(((lp2519
I12
aI7
aI7
at(lp2520
I7
aI7
atp2521
a(((lp2522
I10
aI0
aI0
aI15
aI9
at(lp2523
I10
atp2524
a(((lp2525
I2
aI2
aI1
aI0
at(lp2526
I2
aI2
aI1
atp2527
asg37
I00
sg38
g2
(g39
g4
NtRp2528
(dp2529
g42
I00
sg43
g44
sg45
(lp2530
g2
(g39
g4
NtRp2531
(dp2532
g42
I00
sg43
g49
sg45
(lp2533
g51
asbag2
(g39
g4
NtRp2534
(dp2535
g42
I00
sg43
g49
sg45
(lp2536
g51
asbasbsg58
(lp2537
I16
aI2
aI-40
aI-397
aI1
asg43
Vremove-mod-k with k=3
p2538
sbag2
(g3
g4
NtRp2539
(dp2540
g7
(lp2541
(((lp2542
I13
aI11
aI10
aI0
aI5
aI6
at(lp2543
I13
aI11
aI6
atp2544
a(((lp2545
I2
aI2
aI11
aI6
aI10
at(lp2546
I2
aI2
aI11
aI6
atp2547
a(((lp2548
I6
aI3
aI45
aI1
aI9
aI3
at(lp2549
I6
aI3
aI1
aI9
aI3
atp2550
a(((lt(ltp2551
a(((lp2552
I35
aI1
aI15
at(lp2553
I1
atp2554
a(((lp2555
I1
aI1
aI15
at(lp2556
I1
aI1
atp2557
a(((lp2558
I10
aI6
aI14
at(lp2559
I6
aI14
atp2560
a(((lp2561
I8
aI16
aI2
at(lp2562
I8
aI16
aI2
atp2563
a(((lp2564
I6
aI1
aI15
aI9
aI13
at(lp2565
I6
aI1
aI9
aI13
atp2566
a(((lp2567
I15
aI0
aI2
aI14
at(lp2568
I2
aI14
atp2569
asg37
I00
sg38
g2
(g39
g4
NtRp2570
(dp2571
g42
I00
sg43
g44
sg45
(lp2572
g2
(g39
g4
NtRp2573
(dp2574
g42
I00
sg43
g49
sg45
(lp2575
g51
asbag2
(g39
g4
NtRp2576
(dp2577
g42
I00
sg43
g49
sg45
(lp2578
g51
asbasbsg58
(lp2579
I12
aI0
aI-25
aI-2362
aI1
asg43
Vremove-mod-k with k=5
p2580
sbag2
(g3
g4
NtRp2581
(dp2582
g7
(lp2583
(((lp2584
I13
aI1
aI1
aI7
aI12
at(lp2585
I13
aI2
aI2
aI7
aI12
atp2586
a(((lp2587
I16
aI16
aI10
at(lp2588
I16
aI16
aI10
atp2589
a(((lp2590
I6
aI0
aI1
aI1
aI1
aI1
aI11
at(lp2591
I6
aI0
aI2
aI2
aI2
aI2
aI11
atp2592
a(((lp2593
I0
at(lp2594
I0
atp2595
a(((lp2596
I14
aI0
aI7
aI10
aI11
aI12
at(lp2597
I14
aI0
aI7
aI10
aI11
aI12
atp2598
a(((lp2599
I10
aI11
aI9
at(lp2600
I10
aI11
aI9
atp2601
a(((lp2602
I1
at(lp2603
I2
atp2604
a(((lp2605
I1
aI1
at(lp2606
I2
aI2
atp2607
a(((lp2608
I1
aI0
aI13
aI14
aI14
at(lp2609
I2
aI0
aI13
aI14
aI14
atp2610
a(((lp2611
I2
aI16
aI16
aI12
aI0
aI6
at(lp2612
I2
aI16
aI16
aI12
aI0
aI6
atp2613
asg37
I00
sg38
g2
(g39
g4
NtRp2614
(dp2615
g42
I00
sg43
g44
sg45
(lp2616
g2
(g39
g4
NtRp2617
(dp2618
g42
I00
sg43
g49
sg45
(lp2619
g51
asbag2
(g39
g4
NtRp2620
(dp2621
g42
I00
sg43
g49
sg45
(lp2622
g51
asbasbsg58
(lp2623
I0
aI1
aI3
aI-50
aI1
asg43
Vreplace-all-k-with-n with k=1 and n=2
p2624
sbag2
(g3
g4
NtRp2625
(dp2626
g7
(lp2627
(((lp2628
I4
aI15
aI3
aI0
aI10
aI14
at(lp2629
I4
aI15
aI3
aI0
aI10
aI14
atp2630
a(((lp2631
I1
aI11
aI2
aI2
aI1
at(lp2632
I1
aI11
aI9
aI9
aI1
atp2633
a(((lt(ltp2634
a(((lp2635
I6
aI10
aI0
aI3
aI16
aI9
aI7
at(lp2636
I6
aI10
aI0
aI3
aI16
aI9
aI7
atp2637
a(((lp2638
I10
aI10
aI4
aI16
aI11
aI12
aI14
at(lp2639
I10
aI10
aI4
aI16
aI11
aI12
aI14
atp2640
a(((lp2641
I2
aI9
aI2
aI2
at(lp2642
I9
aI9
aI9
aI9
atp2643
a(((lp2644
I8
aI9
aI1
at(lp2645
I8
aI9
aI1
atp2646
a(((lp2647
I2
aI12
aI16
aI8
aI2
aI15
at(lp2648
I9
aI12
aI16
aI8
aI9
aI15
atp2649
a(((lp2650
I2
aI2
aI2
aI2
at(lp2651
I9
aI9
aI9
aI9
atp2652
a(((lp2653
I2
at(lp2654
I9
atp2655
asg37
I00
sg38
g2
(g39
g4
NtRp2656
(dp2657
g42
I00
sg43
g44
sg45
(lp2658
g2
(g39
g4
NtRp2659
(dp2660
g42
I00
sg43
g49
sg45
(lp2661
g51
asbag2
(g39
g4
NtRp2662
(dp2663
g42
I00
sg43
g49
sg45
(lp2664
g51
asbasbsg58
(lp2665
I0
aI1
aI25
aI-154
aI1
asg43
Vreplace-all-k-with-n with k=2 and n=9
p2666
sbag2
(g3
g4
NtRp2667
(dp2668
g7
(lp2669
(((lp2670
I6
aI8
at(lp2671
I6
aI8
atp2672
a(((lp2673
I4
aI4
aI16
aI5
aI2
aI6
aI4
at(lp2674
I4
aI4
aI16
aI5
aI2
aI6
aI4
atp2675
a(((lp2676
I10
aI0
aI2
aI0
aI7
aI16
at(lp2677
I10
aI0
aI2
aI0
aI7
aI16
atp2678
a(((lp2679
I11
aI7
aI14
aI0
aI8
at(lp2680
I11
aI7
aI14
aI0
aI8
atp2681
a(((lp2682
I8
aI0
aI3
at(lp2683
I8
aI0
aI-2
atp2684
a(((lp2685
I3
aI3
aI9
at(lp2686
I-2
aI-2
aI9
atp2687
a(((lt(ltp2688
a(((lp2689
I7
aI4
aI2
aI5
aI0
at(lp2690
I7
aI4
aI2
aI5
aI0
atp2691
a(((lp2692
I8
aI1
aI2
aI1
aI11
aI9
at(lp2693
I8
aI1
aI2
aI1
aI11
aI9
atp2694
a(((lp2695
I3
aI3
aI3
aI3
at(lp2696
I-2
aI-2
aI-2
aI-2
atp2697
asg37
I00
sg38
g2
(g39
g4
NtRp2698
(dp2699
g42
I00
sg43
g44
sg45
(lp2700
g2
(g39
g4
NtRp2701
(dp2702
g42
I00
sg43
g49
sg45
(lp2703
g51
asbag2
(g39
g4
NtRp2704
(dp2705
g42
I00
sg43
g49
sg45
(lp2706
g51
asbasbsg58
(lp2707
I0
aI0
aI-10
aI80
aI1
asg43
Vreplace-all-k-with-n with k=3 and n=-2
p2708
sbag2
(g3
g4
NtRp2709
(dp2710
g7
(lp2711
(((lp2712
I8
aI10
aI8
aI12
at(lp2713
I8
aI10
aI8
aI12
atp2714
a(((lp2715
I7
aI3
at(lp2716
I7
aI3
atp2717
a(((lp2718
I13
aI0
aI13
aI2
aI2
at(lp2719
I13
aI0
aI13
aI2
aI2
atp2720
a(((lp2721
I0
at(lp2722
I0
atp2723
a(((lp2724
I13
aI11
aI7
at(lp2725
I13
aI11
aI7
atp2726
a(((lp2727
I5
aI3
aI11
aI12
at(lp2728
I0
aI3
aI11
aI12
atp2729
a(((lt(ltp2730
a(((lp2731
I5
aI5
at(lp2732
I0
aI0
atp2733
a(((lp2734
I5
aI5
aI5
aI5
aI5
at(lp2735
I0
aI0
aI0
aI0
aI0
atp2736
a(((lp2737
I2
aI0
at(lp2738
I2
aI0
atp2739
asg37
I00
sg38
g2
(g39
g4
NtRp2740
(dp2741
g42
I00
sg43
g44
sg45
(lp2742
g2
(g39
g4
NtRp2743
(dp2744
g42
I00
sg43
g49
sg45
(lp2745
g51
asbag2
(g39
g4
NtRp2746
(dp2747
g42
I00
sg43
g49
sg45
(lp2748
g51
asbasbsg58
(lp2749
I0
aI0
aI-11
aI45
aI1
asg43
Vreplace-all-k-with-n with k=5 and n=0
p2750
sbag2
(g3
g4
NtRp2751
(dp2752
g7
(lp2753
(((lp2754
I14
aI9
aI12
aI5
aI14
at(lp2755
I14
aI14
aI14
aI14
aI14
atp2756
a(((lp2757
I2
aI2
aI4
aI1
aI8
aI6
aI7
at(lp2758
I2
aI2
aI2
aI2
aI2
aI2
aI2
atp2759
a(((lp2760
I15
at(lp2761
I15
atp2762
a(((lp2763
I6
aI4
at(lp2764
I6
aI6
atp2765
a(((lp2766
I5
at(lp2767
I5
atp2768
a(((lp2769
I2
aI1
aI12
aI16
aI16
aI16
at(lp2770
I2
aI2
aI2
aI2
aI2
aI2
atp2771
a(((lp2772
I16
aI8
aI8
at(lp2773
I16
aI16
aI16
atp2774
a(((lp2775
I9
aI5
aI12
aI4
at(lp2776
I9
aI9
aI9
aI9
atp2777
a(((lp2778
I16
aI6
aI13
at(lp2779
I16
aI16
aI16
atp2780
a(((lp2781
I11
aI10
aI1
aI4
at(lp2782
I11
aI11
aI11
aI11
atp2783
asg37
I00
sg38
g2
(g39
g4
NtRp2784
(dp2785
g42
I00
sg43
g44
sg45
(lp2786
g2
(g39
g4
NtRp2787
(dp2788
g42
I00
sg43
g49
sg45
(lp2789
g51
asbag2
(g39
g4
NtRp2790
(dp2791
g42
I00
sg43
g49
sg45
(lp2792
g51
asbasbsg58
(lp2793
I0
aI0
aI13
aI-577
aI1
asg43
Vreplace-all-with-index-k with k=1
p2794
sbag2
(g3
g4
NtRp2795
(dp2796
g7
(lp2797
(((lp2798
I10
aI1
aI0
aI5
aI1
aI8
at(lp2799
I1
aI1
aI1
aI1
aI1
aI1
atp2800
a(((lp2801
I10
aI0
at(lp2802
I0
aI0
atp2803
a(((lp2804
I10
aI15
at(lp2805
I15
aI15
atp2806
a(((lp2807
I5
aI13
aI0
aI4
aI6
aI3
aI1
aI5
at(lp2808
I13
aI13
aI13
aI13
aI13
aI13
aI13
aI13
atp2809
a(((lp2810
I2
aI14
aI9
aI15
aI7
aI1
aI1
aI1
at(lp2811
I14
aI14
aI14
aI14
aI14
aI14
aI14
aI14
atp2812
a(((lp2813
I13
aI16
aI1
at(lp2814
I16
aI16
aI16
atp2815
a(((lp2816
I10
aI14
aI3
aI12
aI5
aI11
aI14
at(lp2817
I14
aI14
aI14
aI14
aI14
aI14
aI14
atp2818
a(((lp2819
I2
aI11
aI14
at(lp2820
I11
aI11
aI11
atp2821
a(((lp2822
I1
aI5
aI11
aI6
aI0
at(lp2823
I5
aI5
aI5
aI5
aI5
atp2824
a(((lp2825
I5
aI2
aI8
aI14
aI2
aI14
aI9
at(lp2826
I2
aI2
aI2
aI2
aI2
aI2
aI2
atp2827
asg37
I00
sg38
g2
(g39
g4
NtRp2828
(dp2829
g42
I00
sg43
g44
sg45
(lp2830
g2
(g39
g4
NtRp2831
(dp2832
g42
I00
sg43
g49
sg45
(lp2833
g51
asbag2
(g39
g4
NtRp2834
(dp2835
g42
I00
sg43
g49
sg45
(lp2836
g51
asbasbsg58
(lp2837
I0
aI0
aI21
aI-1065
aI1
asg43
Vreplace-all-with-index-k with k=2
p2838
sbag2
(g3
g4
NtRp2839
(dp2840
g7
(lp2841
(((lp2842
I3
aI16
aI5
aI8
aI16
aI16
aI14
at(lp2843
I5
aI5
aI5
aI5
aI5
aI5
aI5
atp2844
a(((lp2845
I3
aI16
aI1
aI10
aI2
at(lp2846
I1
aI1
aI1
aI1
aI1
atp2847
a(((lp2848
I4
aI13
aI11
aI16
aI10
at(lp2849
I11
aI11
aI11
aI11
aI11
atp2850
a(((lp2851
I6
aI13
aI6
at(lp2852
I6
aI6
aI6
atp2853
a(((lp2854
I12
aI13
aI14
at(lp2855
I14
aI14
aI14
atp2856
a(((lp2857
I5
aI6
aI9
aI14
at(lp2858
I9
aI9
aI9
aI9
atp2859
a(((lp2860
I6
aI4
aI3
aI0
aI1
aI3
aI13
aI5
aI0
aI9
at(lp2861
I3
aI3
aI3
aI3
aI3
aI3
aI3
aI3
aI3
aI3
atp2862
a(((lp2863
I6
aI12
aI11
aI15
aI7
aI7
aI8
aI15
aI10
aI3
at(lp2864
I11
aI11
aI11
aI11
aI11
aI11
aI11
aI11
aI11
aI11
atp2865
a(((lp2866
I1
aI10
aI2
aI16
aI5
aI1
aI16
aI9
at(lp2867
I2
aI2
aI2
aI2
aI2
aI2
aI2
aI2
atp2868
a(((lp2869
I3
aI7
aI1
aI14
at(lp2870
I1
aI1
aI1
aI1
atp2871
asg37
I00
sg38
g2
(g39
g4
NtRp2872
(dp2873
g42
I00
sg43
g44
sg45
(lp2874
g2
(g39
g4
NtRp2875
(dp2876
g42
I00
sg43
g49
sg45
(lp2877
g51
asbag2
(g39
g4
NtRp2878
(dp2879
g42
I00
sg43
g49
sg45
(lp2880
g51
asbasbsg58
(lp2881
I0
aI0
aI-19
aI-1195
aI1
asg43
Vreplace-all-with-index-k with k=3
p2882
sbag2
(g3
g4
NtRp2883
(dp2884
g7
(lp2885
(((lp2886
I5
aI14
aI11
aI2
aI7
aI1
at(lp2887
I7
aI7
aI7
aI7
aI7
aI7
atp2888
a(((lp2889
I7
aI9
aI13
aI15
aI1
aI0
aI7
aI15
at(lp2890
I1
aI1
aI1
aI1
aI1
aI1
aI1
aI1
atp2891
a(((lp2892
I7
aI0
aI6
aI5
aI10
aI8
aI11
aI8
aI14
aI9
aI7
aI16
at(lp2893
I10
aI10
aI10
aI10
aI10
aI10
aI10
aI10
aI10
aI10
aI10
aI10
atp2894
a(((lp2895
I11
aI0
aI4
aI16
aI9
aI3
aI16
aI5
aI1
aI15
aI4
aI13
at(lp2896
I9
aI9
aI9
aI9
aI9
aI9
aI9
aI9
aI9
aI9
aI9
aI9
atp2897
a(((lp2898
I7
aI13
aI13
aI12
aI11
aI15
aI12
aI5
aI7
aI15
aI4
aI9
at(lp2899
I11
aI11
aI11
aI11
aI11
aI11
aI11
aI11
aI11
aI11
aI11
aI11
atp2900
a(((lp2901
I9
aI12
aI16
aI8
aI3
aI0
aI9
aI5
at(lp2902
I3
aI3
aI3
aI3
aI3
aI3
aI3
aI3
atp2903
a(((lp2904
I10
aI7
aI12
aI7
aI1
aI12
aI8
at(lp2905
I1
aI1
aI1
aI1
aI1
aI1
aI1
atp2906
a(((lp2907
I6
aI0
aI4
aI16
aI14
aI12
aI14
aI15
aI7
aI7
aI13
at(lp2908
I14
aI14
aI14
aI14
aI14
aI14
aI14
aI14
aI14
aI14
aI14
atp2909
a(((lp2910
I12
aI1
aI8
aI7
aI6
aI8
aI13
aI1
aI16
aI5
at(lp2911
I6
aI6
aI6
aI6
aI6
aI6
aI6
aI6
aI6
aI6
atp2912
a(((lp2913
I16
aI3
aI5
aI6
aI12
aI14
aI16
aI13
aI12
at(lp2914
I12
aI12
aI12
aI12
aI12
aI12
aI12
aI12
aI12
atp2915
asg37
I00
sg38
g2
(g39
g4
NtRp2916
(dp2917
g42
I00
sg43
g44
sg45
(lp2918
g2
(g39
g4
NtRp2919
(dp2920
g42
I00
sg43
g49
sg45
(lp2921
g51
asbag2
(g39
g4
NtRp2922
(dp2923
g42
I00
sg43
g49
sg45
(lp2924
g51
asbasbsg58
(lp2925
I0
aI0
aI-7
aI-2082
aI1
asg43
Vreplace-all-with-index-k with k=5
p2926
sbag2
(g3
g4
NtRp2927
(dp2928
g7
(lp2929
(((lp2930
I6
at(lp2931
I2
atp2932
a(((lp2933
I14
aI12
aI10
aI5
aI14
aI15
aI3
aI16
at(lp2934
I2
aI12
aI10
aI5
aI14
aI15
aI3
aI16
atp2935
a(((lp2936
I13
aI10
aI6
aI1
aI9
at(lp2937
I2
aI10
aI6
aI1
aI9
atp2938
a(((lp2939
I3
aI6
aI3
aI6
aI5
aI0
aI4
at(lp2940
I2
aI6
aI3
aI6
aI5
aI0
aI4
atp2941
a(((lp2942
I9
at(lp2943
I2
atp2944
a(((lp2945
I6
aI7
aI11
aI3
aI15
at(lp2946
I2
aI7
aI11
aI3
aI15
atp2947
a(((lp2948
I11
aI11
aI14
aI6
at(lp2949
I2
aI11
aI14
aI6
atp2950
a(((lp2951
I9
aI16
aI4
aI0
aI11
aI14
aI9
aI15
at(lp2952
I2
aI16
aI4
aI0
aI11
aI14
aI9
aI15
atp2953
a(((lp2954
I2
aI1
aI9
aI6
at(lp2955
I2
aI1
aI9
aI6
atp2956
a(((lp2957
I9
aI16
aI6
aI7
aI4
at(lp2958
I2
aI16
aI6
aI7
aI4
atp2959
asg37
I00
sg38
g2
(g39
g4
NtRp2960
(dp2961
g42
I00
sg43
g44
sg45
(lp2962
g2
(g39
g4
NtRp2963
(dp2964
g42
I00
sg43
g49
sg45
(lp2965
g51
asbag2
(g39
g4
NtRp2966
(dp2967
g42
I00
sg43
g49
sg45
(lp2968
g51
asbasbsg58
(lp2969
I0
aI2
aI-20
aI211
aI1
asg43
Vreplace-index-k-with-n with k=1 and n=2
p2970
sbag2
(g3
g4
NtRp2971
(dp2972
g7
(lp2973
(((lp2974
I5
aI3
aI1
at(lp2975
I5
aI6
aI1
atp2976
a(((lp2977
I7
aI14
aI10
at(lp2978
I7
aI6
aI10
atp2979
a(((lp2980
I2
aI9
aI8
aI10
aI3
aI7
aI3
aI0
at(lp2981
I2
aI6
aI8
aI10
aI3
aI7
aI3
aI0
atp2982
a(((lp2983
I5
aI14
aI1
aI2
aI3
aI4
at(lp2984
I5
aI6
aI1
aI2
aI3
aI4
atp2985
a(((lp2986
I7
aI11
aI12
aI11
at(lp2987
I7
aI6
aI12
aI11
atp2988
a(((lp2989
I1
aI2
aI16
aI12
aI13
aI8
aI11
at(lp2990
I1
aI6
aI16
aI12
aI13
aI8
aI11
atp2991
a(((lp2992
I4
aI12
aI11
aI2
aI13
aI11
aI2
aI6
at(lp2993
I4
aI6
aI11
aI2
aI13
aI11
aI2
aI6
atp2994
a(((lp2995
I16
aI13
aI8
aI0
aI13
aI14
aI4
at(lp2996
I16
aI6
aI8
aI0
aI13
aI14
aI4
atp2997
a(((lp2998
I3
aI9
aI14
aI12
aI5
aI6
aI2
aI1
at(lp2999
I3
aI6
aI14
aI12
aI5
aI6
aI2
aI1
atp3000
a(((lp3001
I1
aI8
aI13
aI6
at(lp3002
I1
aI6
aI13
aI6
atp3003
asg37
I00
sg38
g2
(g39
g4
NtRp3004
(dp3005
g42
I00
sg43
g44
sg45
(lp3006
g2
(g39
g4
NtRp3007
(dp3008
g42
I00
sg43
g49
sg45
(lp3009
g51
asbag2
(g39
g4
NtRp3010
(dp3011
g42
I00
sg43
g49
sg45
(lp3012
g51
asbasbsg58
(lp3013
I0
aI0
aI-8
aI-174
aI1
asg43
Vreplace-index-k-with-n with k=2 and n=6
p3014
sbag2
(g3
g4
NtRp3015
(dp3016
g7
(lp3017
(((lp3018
I14
aI13
aI14
aI4
aI1
aI9
at(lp3019
I14
aI13
aI-2
aI4
aI1
aI9
atp3020
a(((lp3021
I8
aI13
aI10
at(lp3022
I8
aI13
aI-2
atp3023
a(((lp3024
I16
aI5
aI12
aI16
aI2
aI2
aI4
aI16
at(lp3025
I16
aI5
aI-2
aI16
aI2
aI2
aI4
aI16
atp3026
a(((lp3027
I5
aI1
aI4
aI9
aI4
aI6
at(lp3028
I5
aI1
aI-2
aI9
aI4
aI6
atp3029
a(((lp3030
I12
aI5
aI16
aI1
aI12
aI2
aI0
aI14
at(lp3031
I12
aI5
aI-2
aI1
aI12
aI2
aI0
aI14
atp3032
a(((lp3033
I11
aI12
aI12
aI0
aI9
aI13
aI12
aI3
aI5
at(lp3034
I11
aI12
aI-2
aI0
aI9
aI13
aI12
aI3
aI5
atp3035
a(((lp3036
I6
aI15
aI1
aI1
at(lp3037
I6
aI15
aI-2
aI1
atp3038
a(((lp3039
I15
aI14
aI11
aI14
aI7
aI5
aI7
aI5
at(lp3040
I15
aI14
aI-2
aI14
aI7
aI5
aI7
aI5
atp3041
a(((lp3042
I12
aI4
aI12
aI1
aI3
aI0
aI11
at(lp3043
I12
aI4
aI-2
aI1
aI3
aI0
aI11
atp3044
a(((lp3045
I12
aI13
aI0
aI8
at(lp3046
I12
aI13
aI-2
aI8
atp3047
asg37
I00
sg38
g2
(g39
g4
NtRp3048
(dp3049
g42
I00
sg43
g44
sg45
(lp3050
g2
(g39
g4
NtRp3051
(dp3052
g42
I00
sg43
g49
sg45
(lp3053
g51
asbag2
(g39
g4
NtRp3054
(dp3055
g42
I00
sg43
g49
sg45
(lp3056
g51
asbasbsg58
(lp3057
I0
aI0
aI-17
aI541
aI1
asg43
Vreplace-index-k-with-n with k=3 and n=-2
p3058
sbag2
(g3
g4
NtRp3059
(dp3060
g7
(lp3061
(((lp3062
I9
aI9
aI14
aI11
aI11
aI6
aI4
aI14
at(lp3063
I9
aI9
aI14
aI11
aI0
aI6
aI4
aI14
atp3064
a(((lp3065
I4
aI13
aI15
aI16
aI9
aI13
aI12
aI7
aI12
aI14
aI0
aI9
at(lp3066
I4
aI13
aI15
aI16
aI0
aI13
aI12
aI7
aI12
aI14
aI0
aI9
atp3067
a(((lp3068
I12
aI16
aI0
aI12
aI11
aI0
aI11
aI8
aI3
aI13
aI9
at(lp3069
I12
aI16
aI0
aI12
aI0
aI0
aI11
aI8
aI3
aI13
aI9
atp3070
a(((lp3071
I14
aI9
aI5
aI15
aI5
aI11
aI2
aI6
at(lp3072
I14
aI9
aI5
aI15
aI0
aI11
aI2
aI6
atp3073
a(((lp3074
I14
aI7
aI8
aI2
aI10
aI2
at(lp3075
I14
aI7
aI8
aI2
aI0
aI2
atp3076
a(((lp3077
I14
aI10
aI16
aI4
aI9
aI15
at(lp3078
I14
aI10
aI16
aI4
aI0
aI15
atp3079
a(((lp3080
I8
aI5
aI7
aI14
aI7
aI6
aI0
aI14
at(lp3081
I8
aI5
aI7
aI14
aI0
aI6
aI0
aI14
atp3082
a(((lp3083
I12
aI10
aI4
aI14
aI15
aI12
aI1
aI5
at(lp3084
I12
aI10
aI4
aI14
aI0
aI12
aI1
aI5
atp3085
a(((lp3086
I7
aI2
aI3
aI0
aI5
aI8
aI4
aI14
aI16
at(lp3087
I7
aI2
aI3
aI0
aI0
aI8
aI4
aI14
aI16
atp3088
a(((lp3089
I5
aI5
aI6
aI13
aI10
aI1
aI14
aI9
at(lp3090
I5
aI5
aI6
aI13
aI0
aI1
aI14
aI9
atp3091
asg37
I00
sg38
g2
(g39
g4
NtRp3092
(dp3093
g42
I00
sg43
g44
sg45
(lp3094
g2
(g39
g4
NtRp3095
(dp3096
g42
I00
sg43
g49
sg45
(lp3097
g51
asbag2
(g39
g4
NtRp3098
(dp3099
g42
I00
sg43
g49
sg45
(lp3100
g51
asbasbsg58
(lp3101
I0
aI0
aI-12
aI585
aI1
asg43
Vreplace-index-k-with-n with k=5 and n=0
p3102
sbag2
(g3
g4
NtRp3103
(dp3104
g7
(lp3105
(((lp3106
I2
aI0
aI4
at(lp3107
I4
aI0
aI2
atp3108
a(((lp3109
I2
aI5
aI4
aI2
aI0
aI5
aI1
aI1
at(lp3110
I1
aI1
aI5
aI0
aI2
aI4
aI5
aI2
atp3111
asg37
I00
sg38
g2
(g39
g4
NtRp3112
(dp3113
g42
I00
sg43
g44
sg45
(lp3114
g2
(g39
g4
NtRp3115
(dp3116
g42
I00
sg43
g49
sg45
(lp3117
g51
asbag2
(g39
g4
NtRp3118
(dp3119
g42
I00
sg43
g49
sg45
(lp3120
g51
asbasbsg58
(lp3121
I0
aI0
aI0
aI0
aI1
asg43
Vreverse
p3122
sbag2
(g3
g4
NtRp3123
(dp3124
g7
(lp3125
(((lp3126
I1
aI2
aI16
at(lp3127
I16
aI1
aI2
atp3128
a(((lp3129
I13
aI16
at(lp3130
I16
aI13
atp3131
a(((lt(ltp3132
a(((lp3133
I4
aI4
aI15
at(lp3134
I15
aI4
aI4
atp3135
a(((lp3136
I2
aI5
aI2
aI0
aI1
aI13
aI2
at(lp3137
I2
aI2
aI5
aI2
aI0
aI1
aI13
atp3138
a(((lp3139
I14
aI4
aI14
aI7
aI8
aI3
aI4
at(lp3140
I4
aI14
aI4
aI14
aI7
aI8
aI3
atp3141
a(((lp3142
I3
aI2
aI6
aI1
aI16
at(lp3143
I16
aI3
aI2
aI6
aI1
atp3144
a(((lp3145
I6
aI9
aI1
at(lp3146
I1
aI6
aI9
atp3147
a(((lp3148
I2
aI2
aI10
aI13
at(lp3149
I13
aI2
aI2
aI10
atp3150
a(((lp3151
I6
aI0
aI2
aI16
at(lp3152
I16
aI6
aI0
aI2
atp3153
asg37
I00
sg38
g2
(g39
g4
NtRp3154
(dp3155
g42
I00
sg43
g44
sg45
(lp3156
g2
(g39
g4
NtRp3157
(dp3158
g42
I00
sg43
g49
sg45
(lp3159
g51
asbag2
(g39
g4
NtRp3160
(dp3161
g42
I00
sg43
g49
sg45
(lp3162
g51
asbasbsg58
(lp3163
I0
aI0
aI0
aI0
aI1
asg43
Vrotate-k with k=1
p3164
sbag2
(g3
g4
NtRp3165
(dp3166
g7
(lp3167
(((lt(ltp3168
a(((lp3169
I2
aI15
aI3
aI2
aI14
aI3
at(lp3170
I2
aI14
aI3
aI2
aI15
aI3
atp3171
a(((lt(ltp3172
a(((lp3173
I0
aI0
aI15
aI2
aI6
aI11
at(lp3174
I2
aI6
aI11
aI0
aI0
aI15
atp3175
a(((lt(ltp3176
a(((lp3177
I9
aI14
aI1
aI10
aI3
aI10
aI7
at(lp3178
I3
aI10
aI7
aI9
aI14
aI1
aI10
atp3179
a(((lt(ltp3180
a(((lp3181
I8
at(lp3182
I8
atp3183
a(((lp3184
I0
aI4
aI14
aI4
aI7
at(lp3185
I14
aI4
aI7
aI0
aI4
atp3186
a(((lp3187
I10
aI14
aI8
aI12
aI8
at(lp3188
I8
aI12
aI8
aI10
aI14
atp3189
asg37
I00
sg38
g2
(g39
g4
NtRp3190
(dp3191
g42
I00
sg43
g44
sg45
(lp3192
g2
(g39
g4
NtRp3193
(dp3194
g42
I00
sg43
g49
sg45
(lp3195
g51
asbag2
(g39
g4
NtRp3196
(dp3197
g42
I00
sg43
g49
sg45
(lp3198
g51
asbasbsg58
(lp3199
I0
aI0
aI0
aI0
aI1
asg43
Vrotate-k with k=3
p3200
sbag2
(g3
g4
NtRp3201
(dp3202
g7
(lp3203
(((lp3204
I1
aI16
aI15
aI16
at(lp3205
I15
aI16
aI1
aI16
atp3206
a(((lt(ltp3207
a(((lp3208
I9
aI1
aI3
aI7
aI12
at(lp3209
I3
aI7
aI12
aI9
aI1
atp3210
a(((lp3211
I9
at(lp3212
I9
atp3213
a(((lt(ltp3214
a(((lp3215
I7
at(lp3216
I7
atp3217
a(((lp3218
I3
aI7
aI0
aI8
at(lp3219
I0
aI8
aI3
aI7
atp3220
a(((lp3221
I3
aI5
aI1
aI6
at(lp3222
I1
aI6
aI3
aI5
atp3223
a(((lp3224
I11
aI0
at(lp3225
I11
aI0
atp3226
a(((lp3227
I15
aI10
aI1
aI9
aI2
aI11
at(lp3228
I1
aI9
aI2
aI11
aI15
aI10
atp3229
asg37
I00
sg38
g2
(g39
g4
NtRp3230
(dp3231
g42
I00
sg43
g44
sg45
(lp3232
g2
(g39
g4
NtRp3233
(dp3234
g42
I00
sg43
g49
sg45
(lp3235
g51
asbag2
(g39
g4
NtRp3236
(dp3237
g42
I00
sg43
g49
sg45
(lp3238
g51
asbasbsg58
(lp3239
I0
aI0
aI0
aI0
aI1
asg43
Vrotate-k with k=-2
p3240
sbag2
(g3
g4
NtRp3241
(dp3242
g7
(lp3243
(((lp3244
I2
aI12
aI13
aI16
aI1
aI15
aI16
at(lp3245
I2
aI12
aI13
aI16
aI1
aI15
aI16
atp3246
a(((lp3247
I14
aI12
aI10
aI6
aI7
aI11
at(lp3248
I11
aI14
aI12
aI10
aI6
aI7
atp3249
a(((lp3250
I3
aI7
aI10
at(lp3251
I10
aI3
aI7
atp3252
a(((lp3253
I14
aI5
aI4
aI0
aI3
aI14
aI14
at(lp3254
I14
aI5
aI4
aI0
aI3
aI14
aI14
atp3255
a(((lp3256
I1
at(lp3257
I1
atp3258
a(((lt(ltp3259
a(((lp3260
I16
aI11
aI4
aI0
at(lp3261
I11
aI4
aI0
aI16
atp3262
a(((lp3263
I16
at(lp3264
I16
atp3265
a(((lt(ltp3266
a(((lp3267
I0
aI0
aI11
aI13
aI12
aI3
at(lp3268
I3
aI0
aI0
aI11
aI13
aI12
atp3269
asg37
I00
sg38
g2
(g39
g4
NtRp3270
(dp3271
g42
I00
sg43
g44
sg45
(lp3272
g2
(g39
g4
NtRp3273
(dp3274
g42
I00
sg43
g49
sg45
(lp3275
g51
asbag2
(g39
g4
NtRp3276
(dp3277
g42
I00
sg43
g49
sg45
(lp3278
g51
asbasbsg58
(lp3279
I0
aI0
aI0
aI0
aI1
asg43
Vrotate-k with k=7
p3280
sbag2
(g3
g4
NtRp3281
(dp3282
g7
(lp3283
(((lp3284
I7
aI13
aI12
aI10
aI1
aI2
aI1
aI2
at(lp3285
I13
aI12
atp3286
a(((lp3287
I2
aI1
aI11
aI11
aI0
aI0
aI13
at(lp3288
I1
aI11
atp3289
a(((lp3290
I0
aI9
aI2
aI15
aI2
aI9
aI2
at(lp3291
I9
aI2
atp3292
a(((lp3293
I9
aI10
aI10
aI2
aI0
aI11
aI2
aI10
aI15
at(lp3294
I10
aI10
atp3295
a(((lp3296
I12
aI2
aI13
aI9
aI2
aI4
aI12
aI6
aI10
aI11
at(lp3297
I2
aI13
atp3298
a(((lp3299
I0
aI6
aI12
aI10
aI6
aI7
aI16
aI13
aI10
at(lp3300
I6
aI12
atp3301
a(((lp3302
I1
aI14
aI5
aI6
aI15
at(lp3303
I14
aI5
atp3304
a(((lp3305
I7
aI0
aI9
aI7
aI14
aI8
aI13
aI10
aI11
at(lp3306
I0
aI9
atp3307
a(((lp3308
I5
aI0
aI11
aI2
aI4
at(lp3309
I0
aI11
atp3310
a(((lp3311
I13
aI3
aI12
aI4
aI4
aI11
aI6
aI5
aI6
at(lp3312
I3
aI12
atp3313
asg37
I00
sg38
g2
(g39
g4
NtRp3314
(dp3315
g42
I00
sg43
g44
sg45
(lp3316
g2
(g39
g4
NtRp3317
(dp3318
g42
I00
sg43
g49
sg45
(lp3319
g51
asbag2
(g39
g4
NtRp3320
(dp3321
g42
I00
sg43
g49
sg45
(lp3322
g51
asbasbsg58
(lp3323
I58
aI0
aI8
aI-1274
aI1
asg43
Vslice-k-n with k=2 and n=2
p3324
sbag2
(g3
g4
NtRp3325
(dp3326
g7
(lp3327
(((lp3328
I8
aI5
aI2
aI12
aI15
aI12
aI6
aI10
aI10
aI13
aI13
aI12
at(lp3329
I5
aI2
aI12
atp3330
a(((lp3331
I4
aI5
aI7
aI14
aI6
aI13
aI2
aI4
aI9
aI10
at(lp3332
I5
aI7
aI14
atp3333
a(((lp3334
I12
aI15
aI9
aI14
aI8
aI14
aI16
aI5
aI7
aI8
aI6
at(lp3335
I15
aI9
aI14
atp3336
a(((lp3337
I7
aI6
aI13
aI10
aI16
aI12
aI7
at(lp3338
I6
aI13
aI10
atp3339
a(((lp3340
I9
aI0
aI14
aI4
aI0
aI16
aI0
aI14
aI14
at(lp3341
I0
aI14
aI4
atp3342
a(((lp3343
I7
aI14
aI0
aI3
aI10
aI2
aI16
aI15
aI9
aI8
aI1
aI5
at(lp3344
I14
aI0
aI3
atp3345
a(((lp3346
I6
aI15
aI1
aI5
aI6
aI3
aI6
aI7
aI11
aI4
aI1
aI0
at(lp3347
I15
aI1
aI5
atp3348
a(((lp3349
I3
aI2
aI9
aI9
aI9
aI5
aI3
aI8
aI13
aI0
at(lp3350
I2
aI9
aI9
atp3351
a(((lp3352
I6
aI9
aI1
aI11
aI6
aI1
aI15
aI15
aI5
aI9
aI1
at(lp3353
I9
aI1
aI11
atp3354
a(((lp3355
I3
aI3
aI3
aI11
aI16
aI12
aI8
aI10
aI15
at(lp3356
I3
aI3
aI11
atp3357
asg37
I00
sg38
g2
(g39
g4
NtRp3358
(dp3359
g42
I00
sg43
g44
sg45
(lp3360
g2
(g39
g4
NtRp3361
(dp3362
g42
I00
sg43
g49
sg45
(lp3363
g51
asbag2
(g39
g4
NtRp3364
(dp3365
g42
I00
sg43
g49
sg45
(lp3366
g51
asbasbsg58
(lp3367
I73
aI0
aI-6
aI-1514
aI1
asg43
Vslice-k-n with k=2 and n=3
p3368
sbag2
(g3
g4
NtRp3369
(dp3370
g7
(lp3371
(((lp3372
I2
aI7
aI11
aI1
aI6
aI2
aI5
aI10
at(lp3373
I11
aI1
aI6
atp3374
a(((lp3375
I3
aI14
aI2
aI14
aI10
aI4
aI3
aI8
aI9
aI5
aI14
aI5
aI12
at(lp3376
I2
aI14
aI10
atp3377
a(((lp3378
I1
aI1
aI14
aI7
aI13
aI5
aI10
aI15
at(lp3379
I14
aI7
aI13
atp3380
a(((lp3381
I14
aI1
aI11
aI15
aI13
aI2
aI15
aI4
at(lp3382
I11
aI15
aI13
atp3383
a(((lp3384
I0
aI15
aI3
aI3
aI11
aI7
aI14
aI15
aI8
aI7
aI1
at(lp3385
I3
aI3
aI11
atp3386
a(((lp3387
I16
aI14
aI6
aI8
aI15
aI8
aI10
aI11
aI4
aI8
aI7
aI13
at(lp3388
I6
aI8
aI15
atp3389
a(((lp3390
I2
aI5
aI9
aI8
aI14
aI7
aI2
at(lp3391
I9
aI8
aI14
atp3392
a(((lp3393
I15
aI14
aI13
aI9
aI6
aI7
aI2
aI0
aI11
at(lp3394
I13
aI9
aI6
atp3395
a(((lp3396
I2
aI16
aI0
aI12
aI15
aI6
aI12
at(lp3397
I0
aI12
aI15
atp3398
a(((lp3399
I4
aI8
aI3
aI8
aI8
aI10
aI12
aI10
aI0
at(lp3400
I3
aI8
aI8
atp3401
asg37
I00
sg38
g2
(g39
g4
NtRp3402
(dp3403
g42
I00
sg43
g44
sg45
(lp3404
g2
(g39
g4
NtRp3405
(dp3406
g42
I00
sg43
g49
sg45
(lp3407
g51
asbag2
(g39
g4
NtRp3408
(dp3409
g42
I00
sg43
g49
sg45
(lp3410
g51
asbasbsg58
(lp3411
I62
aI0
aI10
aI-1564
aI1
asg43
Vslice-k-n with k=3 and n=3
p3412
sbag2
(g3
g4
NtRp3413
(dp3414
g7
(lp3415
(((lp3416
I14
aI8
aI2
aI11
aI2
aI11
aI14
aI13
aI1
aI13
aI8
at(lp3417
I2
aI11
aI2
aI11
atp3418
a(((lp3419
I12
aI16
aI4
aI3
aI14
aI14
aI13
aI3
aI1
aI16
aI7
aI13
aI4
aI9
at(lp3420
I4
aI3
aI14
aI14
atp3421
a(((lp3422
I6
aI3
aI4
aI15
aI2
aI9
aI16
aI4
aI13
at(lp3423
I4
aI15
aI2
aI9
atp3424
a(((lp3425
I1
aI9
aI16
aI7
aI2
aI0
aI7
aI13
aI3
aI8
aI3
aI8
aI13
at(lp3426
I16
aI7
aI2
aI0
atp3427
a(((lp3428
I15
aI16
aI11
aI3
aI11
aI15
aI0
aI14
at(lp3429
I11
aI3
aI11
aI15
atp3430
a(((lp3431
I10
aI13
aI11
aI10
aI0
aI5
aI6
aI11
aI14
aI2
aI2
aI11
aI6
aI10
at(lp3432
I11
aI10
aI0
aI5
atp3433
a(((lp3434
I2
aI2
aI6
aI3
aI11
aI1
aI9
aI3
aI6
aI16
aI1
aI14
aI7
aI3
at(lp3435
I6
aI3
aI11
aI1
atp3436
a(((lp3437
I16
aI1
aI1
aI13
aI5
aI2
aI13
aI6
aI14
aI1
aI1
aI15
at(lp3438
I1
aI13
aI5
aI2
atp3439
a(((lp3440
I14
aI10
aI6
aI14
aI7
aI16
aI8
aI16
aI2
aI12
aI6
at(lp3441
I6
aI14
aI7
aI16
atp3442
a(((lp3443
I5
aI0
aI15
aI9
aI13
aI6
aI1
aI9
at(lp3444
I15
aI9
aI13
aI6
atp3445
asg37
I00
sg38
g2
(g39
g4
NtRp3446
(dp3447
g42
I00
sg43
g44
sg45
(lp3448
g2
(g39
g4
NtRp3449
(dp3450
g42
I00
sg43
g49
sg45
(lp3451
g51
asbag2
(g39
g4
NtRp3452
(dp3453
g42
I00
sg43
g49
sg45
(lp3454
g51
asbasbsg58
(lp3455
I74
aI0
aI-5
aI-1991
aI1
asg43
Vslice-k-n with k=3 and n=4
p3456
sbag2
(g3
g4
NtRp3457
(dp3458
g7
(lp3459
(((lp3460
I2
aI0
aI4
at(lp3461
I0
aI2
aI4
atp3462
a(((lp3463
I2
aI5
aI4
aI2
aI0
aI5
aI1
aI1
at(lp3464
I0
aI1
aI1
aI2
aI2
aI4
aI5
aI5
atp3465
asg37
I00
sg38
g2
(g39
g4
NtRp3466
(dp3467
g42
I00
sg43
g44
sg45
(lp3468
g2
(g39
g4
NtRp3469
(dp3470
g42
I00
sg43
g49
sg45
(lp3471
g51
asbag2
(g39
g4
NtRp3472
(dp3473
g42
I00
sg43
g49
sg45
(lp3474
g51
asbasbsg58
(lp3475
I0
aI0
aI0
aI0
aI1
asg43
Vsort
p3476
sbag2
(g3
g4
NtRp3477
(dp3478
g7
(lp3479
(((lp3480
I1
aI2
aI3
atI6
tp3481
a(((lp3482
I0
atI0
tp3483
a(((lp3484
I1
aI1
aI2
aI1
atI5
tp3485
a(((lp3486
I15
aI9
atI24
tp3487
a(((ltI0
tp3488
a(((lp3489
I2
aI14
aI11
atI27
tp3490
a(((ltI0
tp3491
a(((lp3492
I14
aI9
aI13
aI4
aI12
aI12
atI64
tp3493
a(((lp3494
I6
aI10
atI16
tp3495
a(((lp3496
I16
atI16
tp3497
asg37
I00
sg38
g2
(g39
g4
NtRp3498
(dp3499
g42
I00
sg43
g44
sg45
(lp3500
g2
(g39
g4
NtRp3501
(dp3502
g42
I00
sg43
g49
sg45
(lp3503
g51
asbag51
asbsg58
(lp3504
I22
aI4
aI100
aI177
aI0
asg43
Vsum
p3505
sbag2
(g3
g4
NtRp3506
(dp3507
g7
(lp3508
(((lp3509
I5
aI9
aI1
at(lp3510
I9
aI1
atp3511
a(((lp3512
I12
aI4
at(lp3513
I4
atp3514
a(((lp3515
I2
aI3
aI6
aI7
at(lp3516
I3
aI6
aI7
atp3517
asg37
I00
sg38
g2
(g39
g4
NtRp3518
(dp3519
g42
I00
sg43
g44
sg45
(lp3520
g2
(g39
g4
NtRp3521
(dp3522
g42
I00
sg43
g49
sg45
(lp3523
g51
asbag2
(g39
g4
NtRp3524
(dp3525
g42
I00
sg43
g49
sg45
(lp3526
g51
asbasbsg58
(lp3527
I3
aI0
aI-3
aI-41
aI1
asg43
Vtail
p3528
sbag2
(g3
g4
NtRp3529
(dp3530
g7
(lp3531
(((lp3532
I6
aI8
aI3
at(lp3533
I6
aI8
atp3534
a(((lp3535
I1
aI5
at(lp3536
I1
aI5
atp3537
a(((lp3538
I9
aI10
aI5
aI9
aI11
aI3
aI6
at(lp3539
I9
aI10
atp3540
a(((lp3541
I14
aI7
aI12
aI3
aI1
aI6
aI11
aI10
at(lp3542
I14
aI7
atp3543
a(((lp3544
I3
aI4
aI2
aI7
aI5
aI11
aI10
aI11
at(lp3545
I3
aI4
atp3546
a(((lp3547
I7
aI9
at(lp3548
I7
aI9
atp3549
a(((lp3550
I14
aI3
aI16
aI11
aI11
aI13
aI4
aI5
at(lp3551
I14
aI3
atp3552
a(((lp3553
I5
aI13
aI9
aI8
aI5
aI14
aI4
aI0
aI13
at(lp3554
I5
aI13
atp3555
a(((lp3556
I14
aI13
aI4
aI10
aI15
aI1
at(lp3557
I14
aI13
atp3558
a(((lp3559
I13
aI2
at(lp3560
I13
aI2
atp3561
asg37
I00
sg38
g2
(g39
g4
NtRp3562
(dp3563
g42
I00
sg43
g44
sg45
(lp3564
g2
(g39
g4
NtRp3565
(dp3566
g42
I00
sg43
g49
sg45
(lp3567
g51
asbag2
(g39
g4
NtRp3568
(dp3569
g42
I00
sg43
g49
sg45
(lp3570
g51
asbasbsg58
(lp3571
I35
aI0
aI8
aI-720
aI1
asg43
Vtake-k with k=2
p3572
sbag2
(g3
g4
NtRp3573
(dp3574
g7
(lp3575
(((lp3576
I2
aI4
aI15
aI1
aI4
aI6
aI10
aI14
aI5
at(lp3577
I2
aI4
aI15
atp3578
a(((lp3579
I8
aI7
aI9
aI14
aI12
aI8
aI11
at(lp3580
I8
aI7
aI9
atp3581
a(((lp3582
I5
aI13
aI12
aI15
aI2
aI2
aI13
aI7
aI1
aI13
at(lp3583
I5
aI13
aI12
atp3584
a(((lp3585
I15
aI6
aI14
aI8
aI15
aI5
at(lp3586
I15
aI6
aI14
atp3587
a(((lp3588
I13
aI1
aI0
aI9
aI0
aI16
aI12
aI10
at(lp3589
I13
aI1
aI0
atp3590
a(((lp3591
I14
aI3
aI4
aI14
aI7
aI0
aI2
at(lp3592
I14
aI3
aI4
atp3593
a(((lp3594
I12
aI13
aI0
aI7
aI2
aI10
aI5
at(lp3595
I12
aI13
aI0
atp3596
a(((lp3597
I14
aI14
aI10
aI2
aI9
aI11
aI9
aI7
at(lp3598
I14
aI14
aI10
atp3599
a(((lp3600
I11
aI9
aI6
aI7
aI1
aI13
at(lp3601
I11
aI9
aI6
atp3602
a(((lp3603
I14
aI5
aI14
aI10
at(lp3604
I14
aI5
aI14
atp3605
asg37
I00
sg38
g2
(g39
g4
NtRp3606
(dp3607
g42
I00
sg43
g44
sg45
(lp3608
g2
(g39
g4
NtRp3609
(dp3610
g42
I00
sg43
g49
sg45
(lp3611
g51
asbag2
(g39
g4
NtRp3612
(dp3613
g42
I00
sg43
g49
sg45
(lp3614
g51
asbasbsg58
(lp3615
I42
aI0
aI7
aI-973
aI1
asg43
Vtake-k with k=3
p3616
sbag2
(g3
g4
NtRp3617
(dp3618
g7
(lp3619
(((lp3620
I2
aI13
aI9
aI6
aI8
aI3
aI11
at(lp3621
I2
aI13
aI9
aI6
aI8
atp3622
a(((lp3623
I3
aI12
aI13
aI12
aI9
aI1
aI11
aI1
at(lp3624
I3
aI12
aI13
aI12
aI9
atp3625
a(((lp3626
I14
aI15
aI5
aI7
aI7
aI14
aI2
at(lp3627
I14
aI15
aI5
aI7
aI7
atp3628
a(((lp3629
I15
aI16
aI10
aI12
aI12
aI1
aI2
aI15
aI1
at(lp3630
I15
aI16
aI10
aI12
aI12
atp3631
a(((lp3632
I15
aI4
aI14
aI13
aI12
aI16
aI7
aI16
aI9
aI7
at(lp3633
I15
aI4
aI14
aI13
aI12
atp3634
a(((lp3635
I1
aI3
aI8
aI12
aI6
aI16
aI15
at(lp3636
I1
aI3
aI8
aI12
aI6
atp3637
a(((lp3638
I7
aI1
aI13
aI4
aI15
aI5
aI11
aI3
aI8
aI4
aI4
at(lp3639
I7
aI1
aI13
aI4
aI15
atp3640
a(((lp3641
I5
aI0
aI4
aI9
aI14
aI16
aI1
at(lp3642
I5
aI0
aI4
aI9
aI14
atp3643
a(((lp3644
I9
aI15
aI13
aI6
aI8
at(lp3645
I9
aI15
aI13
aI6
aI8
atp3646
a(((lp3647
I1
aI13
aI3
aI9
aI7
aI10
aI2
aI11
at(lp3648
I1
aI13
aI3
aI9
aI7
atp3649
asg37
I00
sg38
g2
(g39
g4
NtRp3650
(dp3651
g42
I00
sg43
g44
sg45
(lp3652
g2
(g39
g4
NtRp3653
(dp3654
g42
I00
sg43
g49
sg45
(lp3655
g51
asbag2
(g39
g4
NtRp3656
(dp3657
g42
I00
sg43
g49
sg45
(lp3658
g51
asbasbsg58
(lp3659
I29
aI0
aI4
aI-976
aI1
asg43
Vtake-k with k=5
p3660
sbag2
(g3
g4
NtRp3661
(dp3662
g7
(lp3663
(((lp3664
I1
aI1
aI1
at(lp3665
I1
atp3666
a(((lp3667
I2
aI5
aI4
aI2
aI2
aI0
aI5
aI1
aI1
at(lp3668
I2
aI5
aI4
aI0
aI1
atp3669
asg37
I00
sg38
g2
(g39
g4
NtRp3670
(dp3671
g42
I00
sg43
g44
sg45
(lp3672
g2
(g39
g4
NtRp3673
(dp3674
g42
I00
sg43
g49
sg45
(lp3675
g51
asbag2
(g39
g4
NtRp3676
(dp3677
g42
I00
sg43
g49
sg45
(lp3678
g51
asbasbsg58
(lp3679
I6
aI0
aI0
aI-10
aI1
asg43
Vuniq
p3680
sba.