(lp1
ccopy_reg
_reconstructor
p2
(ctask
RegressionTask
p3
c__builtin__
object
p4
Ntp5
Rp6
(dp7
S'cache'
p8
I00
sS'features'
p9
NsS'request'
p10
g2
(ctype
TypeConstructor
p11
g4
Ntp12
Rp13
(dp14
S'name'
p15
S'->'
p16
sS'arguments'
p17
(lp18
g2
(g11
g4
Ntp19
Rp20
(dp21
g15
S'list'
p22
sg17
(lp23
g2
(g11
g4
Ntp24
Rp25
(dp26
g15
S'int'
p27
sg17
(lp28
sbasbag2
(g11
g4
Ntp29
Rp30
(dp31
g15
g22
sg17
(lp32
g25
asbasbsg15
Vadd-k with k=2
p33
sS'examples'
p34
(lp35
(((lp36
I10
aI7
aI7
atp37
(lp38
I12
aI9
aI9
atp39
a(((lp40
I8
aI0
aI5
aI11
atp41
(lp42
I10
aI2
aI7
aI13
atp43
a(((lp44
I13
aI14
atp45
(lp46
I15
aI16
atp47
a(((lp48
I15
aI0
aI16
aI16
aI11
atp49
(lp50
I17
aI2
aI18
aI18
aI13
atp51
a(((lp52
I5
aI12
aI9
atp53
(lp54
I7
aI14
aI11
atp55
a(((lp56
I16
aI10
aI1
atp57
(lp58
I18
aI12
aI3
atp59
a(((lp60
I16
aI14
aI13
atp61
(lp62
I18
aI16
aI15
atp63
a(((lp64
tp65
(lp66
tp67
a(((lp68
tp69
(lp70
tp71
a(((lp72
I15
aI6
aI2
aI16
aI4
atp73
(lp74
I17
aI8
aI4
aI18
aI6
atp75
asbag2
(g3
g4
Ntp76
Rp77
(dp78
g8
I00
sg9
Nsg10
g2
(g11
g4
Ntp79
Rp80
(dp81
g15
g16
sg17
(lp82
g2
(g11
g4
Ntp83
Rp84
(dp85
g15
g22
sg17
(lp86
g25
asbag2
(g11
g4
Ntp87
Rp88
(dp89
g15
g22
sg17
(lp90
g25
asbasbsg15
Vadd-k with k=3
p91
sg34
(lp92
(((lp93
I16
atp94
(lp95
I19
atp96
a(((lp97
I15
aI0
aI0
aI12
aI4
atp98
(lp99
I18
aI3
aI3
aI15
aI7
atp100
a(((lp101
I8
aI16
aI12
aI11
aI2
atp102
(lp103
I11
aI19
aI15
aI14
aI5
atp104
a(((lp105
I6
atp106
(lp107
I9
atp108
a(((lp109
I13
atp110
(lp111
I16
atp112
a(((lp113
I5
aI16
aI11
aI14
aI3
aI12
atp114
(lp115
I8
aI19
aI14
aI17
aI6
aI15
atp116
a(((lp117
I13
aI1
aI8
aI1
atp118
(lp119
I16
aI4
aI11
aI4
atp120
a(((lp121
I4
aI13
aI3
aI0
aI3
aI5
atp122
(lp123
I7
aI16
aI6
aI3
aI6
aI8
atp124
a(((lp125
I2
aI1
aI3
aI11
aI10
atp126
(lp127
I5
aI4
aI6
aI14
aI13
atp128
a(((lp129
I14
aI11
aI4
aI7
aI6
aI3
atp130
(lp131
I17
aI14
aI7
aI10
aI9
aI6
atp132
asbag2
(g3
g4
Ntp133
Rp134
(dp135
g8
I00
sg9
Nsg10
g2
(g11
g4
Ntp136
Rp137
(dp138
g15
g16
sg17
(lp139
g2
(g11
g4
Ntp140
Rp141
(dp142
g15
g22
sg17
(lp143
g25
asbag2
(g11
g4
Ntp144
Rp145
(dp146
g15
g22
sg17
(lp147
g25
asbasbsg15
Vadd-k with k=-2
p148
sg34
(lp149
(((lp150
I9
aI3
aI11
aI3
aI16
aI8
aI5
atp151
(lp152
I7
aI1
aI9
aI1
aI14
aI6
aI3
atp153
a(((lp154
I12
aI3
aI14
aI11
aI1
aI15
aI8
atp155
(lp156
I10
aI1
aI12
aI9
aI-1
aI13
aI6
atp157
a(((lp158
I16
aI9
aI15
aI4
aI11
atp159
(lp160
I14
aI7
aI13
aI2
aI9
atp161
a(((lp162
I12
atp163
(lp164
I10
atp165
a(((lp166
I3
aI7
aI1
aI11
aI3
atp167
(lp168
I1
aI5
aI-1
aI9
aI1
atp169
a(((lp170
I0
aI6
atp171
(lp172
I-2
aI4
atp173
a(((lp174
I14
aI6
aI16
aI15
atp175
(lp176
I12
aI4
aI14
aI13
atp177
a(((lp178
I7
atp179
(lp180
I5
atp181
a(((lp182
I3
aI7
aI7
aI6
aI9
aI1
aI8
atp183
(lp184
I1
aI5
aI5
aI4
aI7
aI-1
aI6
atp185
a(((lp186
I6
aI5
aI14
aI3
aI5
atp187
(lp188
I4
aI3
aI12
aI1
aI3
atp189
asbag2
(g3
g4
Ntp190
Rp191
(dp192
g8
I00
sg9
Nsg10
g2
(g11
g4
Ntp193
Rp194
(dp195
g15
g16
sg17
(lp196
g2
(g11
g4
Ntp197
Rp198
(dp199
g15
g22
sg17
(lp200
g25
asbag2
(g11
g4
Ntp201
Rp202
(dp203
g15
g22
sg17
(lp204
g25
asbasbsg15
Vadd-k with k=4
p205
sg34
(lp206
(((lp207
I6
aI11
aI5
aI9
aI1
aI12
aI9
atp208
(lp209
I10
aI15
aI9
aI13
aI5
aI16
aI13
atp210
a(((lp211
I4
atp212
(lp213
I8
atp214
a(((lp215
I3
aI9
aI10
atp216
(lp217
I7
aI13
aI14
atp218
a(((lp219
I1
aI8
aI9
aI11
aI4
atp220
(lp221
I5
aI12
aI13
aI15
aI8
atp222
a(((lp223
I5
aI3
aI0
aI5
aI0
atp224
(lp225
I9
aI7
aI4
aI9
aI4
atp226
a(((lp227
tp228
(lp229
tp230
a(((lp231
I14
aI9
aI11
aI14
aI4
aI6
atp232
(lp233
I18
aI13
aI15
aI18
aI8
aI10
atp234
a(((lp235
I6
aI11
aI10
aI2
atp236
(lp237
I10
aI15
aI14
aI6
atp238
a(((lp239
I2
aI13
aI9
aI7
atp240
(lp241
I6
aI17
aI13
aI11
atp242
a(((lp243
I15
aI10
aI4
atp244
(lp245
I19
aI14
aI8
atp246
asbag2
(g3
g4
Ntp247
Rp248
(dp249
g8
I00
sg9
Nsg10
g2
(g11
g4
Ntp250
Rp251
(dp252
g15
g16
sg17
(lp253
g2
(g11
g4
Ntp254
Rp255
(dp256
g15
g22
sg17
(lp257
g25
asbag2
(g11
g4
Ntp258
Rp259
(dp260
g15
g22
sg17
(lp261
g25
asbasbsg15
Vappend-k with k=2
p262
sg34
(lp263
(((lp264
I14
aI13
aI1
aI7
aI11
aI14
aI6
atp265
(lp266
I14
aI13
aI1
aI7
aI11
aI14
aI6
aI2
atp267
a(((lp268
I3
atp269
(lp270
I3
aI2
atp271
a(((lp272
I13
atp273
(lp274
I13
aI2
atp275
a(((lp276
I12
aI8
atp277
(lp278
I12
aI8
aI2
atp279
a(((lp280
I16
aI15
atp281
(lp282
I16
aI15
aI2
atp283
a(((lp284
I4
aI16
atp285
(lp286
I4
aI16
aI2
atp287
a(((lp288
I13
aI9
aI10
atp289
(lp290
I13
aI9
aI10
aI2
atp291
a(((lp292
I15
atp293
(lp294
I15
aI2
atp295
a(((lp296
I6
aI0
aI13
aI10
aI4
atp297
(lp298
I6
aI0
aI13
aI10
aI4
aI2
atp299
a(((lp300
tp301
(lp302
I2
atp303
asbag2
(g3
g4
Ntp304
Rp305
(dp306
g8
I00
sg9
Nsg10
g2
(g11
g4
Ntp307
Rp308
(dp309
g15
g16
sg17
(lp310
g2
(g11
g4
Ntp311
Rp312
(dp313
g15
g22
sg17
(lp314
g25
asbag2
(g11
g4
Ntp315
Rp316
(dp317
g15
g22
sg17
(lp318
g25
asbasbsg15
Vappend-k with k=3
p319
sg34
(lp320
(((lp321
I5
aI3
aI6
atp322
(lp323
I5
aI3
aI6
aI3
atp324
a(((lp325
I10
aI15
aI10
aI0
aI10
aI9
atp326
(lp327
I10
aI15
aI10
aI0
aI10
aI9
aI3
atp328
a(((lp329
I10
aI12
aI15
atp330
(lp331
I10
aI12
aI15
aI3
atp332
a(((lp333
I4
aI14
aI15
aI5
aI8
aI5
atp334
(lp335
I4
aI14
aI15
aI5
aI8
aI5
aI3
atp336
a(((lp337
I0
aI11
aI16
atp338
(lp339
I0
aI11
aI16
aI3
atp340
a(((lp341
I3
atp342
(lp343
I3
aI3
atp344
a(((lp345
I0
aI1
aI7
aI1
aI13
aI6
atp346
(lp347
I0
aI1
aI7
aI1
aI13
aI6
aI3
atp348
a(((lp349
I1
aI6
atp350
(lp351
I1
aI6
aI3
atp352
a(((lp353
I1
atp354
(lp355
I1
aI3
atp356
a(((lp357
I0
atp358
(lp359
I0
aI3
atp360
asbag2
(g3
g4
Ntp361
Rp362
(dp363
g8
I00
sg9
Nsg10
g2
(g11
g4
Ntp364
Rp365
(dp366
g15
g16
sg17
(lp367
g2
(g11
g4
Ntp368
Rp369
(dp370
g15
g22
sg17
(lp371
g25
asbag2
(g11
g4
Ntp372
Rp373
(dp374
g15
g22
sg17
(lp375
g25
asbasbsg15
Vappend-k with k=-2
p376
sg34
(lp377
(((lp378
I3
aI7
aI13
aI3
atp379
(lp380
I3
aI7
aI13
aI3
aI-2
atp381
a(((lp382
I6
aI0
aI4
aI8
aI13
aI2
atp383
(lp384
I6
aI0
aI4
aI8
aI13
aI2
aI-2
atp385
a(((lp386
tp387
(lp388
I-2
atp389
a(((lp390
I6
aI7
aI8
atp391
(lp392
I6
aI7
aI8
aI-2
atp393
a(((lp394
I9
aI10
aI2
aI14
aI4
aI3
aI6
atp395
(lp396
I9
aI10
aI2
aI14
aI4
aI3
aI6
aI-2
atp397
a(((lp398
I1
aI4
aI11
aI0
atp399
(lp400
I1
aI4
aI11
aI0
aI-2
atp401
a(((lp402
I8
aI15
aI5
aI14
atp403
(lp404
I8
aI15
aI5
aI14
aI-2
atp405
a(((lp406
I8
atp407
(lp408
I8
aI-2
atp409
a(((lp410
I0
aI6
atp411
(lp412
I0
aI6
aI-2
atp413
a(((lp414
I3
aI1
atp415
(lp416
I3
aI1
aI-2
atp417
asbag2
(g3
g4
Ntp418
Rp419
(dp420
g8
I00
sg9
Nsg10
g2
(g11
g4
Ntp421
Rp422
(dp423
g15
g16
sg17
(lp424
g2
(g11
g4
Ntp425
Rp426
(dp427
g15
g22
sg17
(lp428
g25
asbag2
(g11
g4
Ntp429
Rp430
(dp431
g15
g22
sg17
(lp432
g25
asbasbsg15
Vappend-k with k=4
p433
sg34
(lp434
(((lp435
I10
aI13
aI10
aI8
aI5
aI13
atp436
(lp437
I10
aI13
aI10
aI8
aI5
aI13
aI4
atp438
a(((lp439
I1
aI6
aI8
aI10
aI3
atp440
(lp441
I1
aI6
aI8
aI10
aI3
aI4
atp442
a(((lp443
I1
aI12
aI1
aI7
atp444
(lp445
I1
aI12
aI1
aI7
aI4
atp446
a(((lp447
tp448
(lp449
I4
atp450
a(((lp451
I2
aI12
aI11
aI9
aI2
aI11
aI15
atp452
(lp453
I2
aI12
aI11
aI9
aI2
aI11
aI15
aI4
atp454
a(((lp455
I5
aI12
aI16
aI12
aI5
aI13
aI3
atp456
(lp457
I5
aI12
aI16
aI12
aI5
aI13
aI3
aI4
atp458
a(((lp459
tp460
(lp461
I4
atp462
a(((lp463
I4
aI10
aI1
aI3
atp464
(lp465
I4
aI10
aI1
aI3
aI4
atp466
a(((lp467
I11
aI5
aI6
aI11
aI11
aI3
atp468
(lp469
I11
aI5
aI6
aI11
aI11
aI3
aI4
atp470
a(((lp471
tp472
(lp473
I4
atp474
asbag2
(g3
g4
Ntp475
Rp476
(dp477
g8
I00
sg9
Nsg10
g2
(g11
g4
Ntp478
Rp479
(dp480
g15
g16
sg17
(lp481
g2
(g11
g4
Ntp482
Rp483
(dp484
g15
g22
sg17
(lp485
g25
asbag2
(g11
g4
Ntp486
Rp487
(dp488
g15
g22
sg17
(lp489
g25
asbasbsg15
Vcaesar-cipher-k-modulo-n with k=2 and n=7
p490
sg34
(lp491
(((lp492
I0
aI0
aI4
atp493
(lp494
I2
aI2
aI6
atp495
a(((lp496
I1
aI1
aI6
aI0
aI0
aI2
atp497
(lp498
I3
aI3
aI1
aI2
aI2
aI4
atp499
a(((lp500
I6
aI6
aI4
atp501
(lp502
I1
aI1
aI6
atp503
a(((lp504
I2
aI2
aI3
aI4
aI5
aI4
aI0
atp505
(lp506
I4
aI4
aI5
aI6
aI0
aI6
aI2
atp507
a(((lp508
I5
atp509
(lp510
I0
atp511
a(((lp512
I2
aI4
aI4
atp513
(lp514
I4
aI6
aI6
atp515
a(((lp516
I1
atp517
(lp518
I3
atp519
a(((lp520
I6
atp521
(lp522
I1
atp523
a(((lp524
I2
atp525
(lp526
I4
atp527
a(((lp528
I4
aI3
aI3
aI5
aI2
atp529
(lp530
I6
aI5
aI5
aI0
aI4
atp531
asbag2
(g3
g4
Ntp532
Rp533
(dp534
g8
I00
sg9
Nsg10
g2
(g11
g4
Ntp535
Rp536
(dp537
g15
g16
sg17
(lp538
g2
(g11
g4
Ntp539
Rp540
(dp541
g15
g22
sg17
(lp542
g25
asbag2
(g11
g4
Ntp543
Rp544
(dp545
g15
g22
sg17
(lp546
g25
asbasbsg15
Vcaesar-cipher-k-modulo-n with k=1 and n=4
p547
sg34
(lp548
(((lp549
I1
aI0
aI1
aI2
atp550
(lp551
I2
aI1
aI2
aI3
atp552
a(((lp553
I1
aI0
aI3
aI0
aI1
aI0
atp554
(lp555
I2
aI1
aI0
aI1
aI2
aI1
atp556
a(((lp557
I0
aI1
aI0
aI3
atp558
(lp559
I1
aI2
aI1
aI0
atp560
a(((lp561
I3
atp562
(lp563
I0
atp564
a(((lp565
tp566
(lp567
tp568
a(((lp569
I1
aI3
aI3
aI0
aI3
aI2
atp570
(lp571
I2
aI0
aI0
aI1
aI0
aI3
atp572
a(((lp573
I0
aI0
aI2
aI2
aI3
aI0
aI1
atp574
(lp575
I1
aI1
aI3
aI3
aI0
aI1
aI2
atp576
a(((lp577
I2
aI2
aI0
aI0
aI2
aI2
atp578
(lp579
I3
aI3
aI1
aI1
aI3
aI3
atp580
a(((lp581
I3
atp582
(lp583
I0
atp584
a(((lp585
I1
aI0
atp586
(lp587
I2
aI1
atp588
asbag2
(g3
g4
Ntp589
Rp590
(dp591
g8
I00
sg9
Nsg10
g2
(g11
g4
Ntp592
Rp593
(dp594
g15
g16
sg17
(lp595
g2
(g11
g4
Ntp596
Rp597
(dp598
g15
g22
sg17
(lp599
g25
asbag2
(g11
g4
Ntp600
Rp601
(dp602
g15
g22
sg17
(lp603
g25
asbasbsg15
Vcaesar-cipher-k-modulo-n with k=5 and n=4
p604
sg34
(lp605
(((lp606
I0
aI2
aI3
aI1
aI1
aI1
atp607
(lp608
I1
aI3
aI0
aI2
aI2
aI2
atp609
a(((lp610
I1
aI0
aI1
atp611
(lp612
I2
aI1
aI2
atp613
a(((lp614
I2
aI1
aI1
aI3
aI1
atp615
(lp616
I3
aI2
aI2
aI0
aI2
atp617
a(((lp618
I1
aI1
aI0
aI1
aI3
aI1
atp619
(lp620
I2
aI2
aI1
aI2
aI0
aI2
atp621
a(((lp622
I3
atp623
(lp624
I0
atp625
a(((lp626
I2
aI1
aI2
aI0
atp627
(lp628
I3
aI2
aI3
aI1
atp629
a(((lp630
I3
aI0
aI3
aI2
atp631
(lp632
I0
aI1
aI0
aI3
atp633
a(((lp634
I3
aI1
atp635
(lp636
I0
aI2
atp637
a(((lp638
I1
aI1
aI2
aI0
aI3
aI3
atp639
(lp640
I2
aI2
aI3
aI1
aI0
aI0
atp641
a(((lp642
I3
aI2
aI3
aI2
aI1
aI3
atp643
(lp644
I0
aI3
aI0
aI3
aI2
aI0
atp645
asbag2
(g3
g4
Ntp646
Rp647
(dp648
g8
I00
sg9
Nsg10
g2
(g11
g4
Ntp649
Rp650
(dp651
g15
g16
sg17
(lp652
g2
(g11
g4
Ntp653
Rp654
(dp655
g15
g22
sg17
(lp656
g25
asbag2
(g11
g4
Ntp657
Rp658
(dp659
g15
g22
sg17
(lp660
g25
asbasbsg15
Vcaesar-cipher-k-modulo-n with k=3 and n=9
p661
sg34
(lp662
(((lp663
I8
aI7
aI5
atp664
(lp665
I2
aI1
aI8
atp666
a(((lp667
tp668
(lp669
tp670
a(((lp671
I2
aI0
aI4
aI4
atp672
(lp673
I5
aI3
aI7
aI7
atp674
a(((lp675
I5
aI5
aI6
aI1
atp676
(lp677
I8
aI8
aI0
aI4
atp678
a(((lp679
I1
aI5
aI5
aI1
aI7
aI8
aI0
atp680
(lp681
I4
aI8
aI8
aI4
aI1
aI2
aI3
atp682
a(((lp683
I3
atp684
(lp685
I6
atp686
a(((lp687
I7
aI2
aI7
aI4
atp688
(lp689
I1
aI5
aI1
aI7
atp690
a(((lp691
tp692
(lp693
tp694
a(((lp695
I0
aI4
aI7
aI2
aI0
atp696
(lp697
I3
aI7
aI1
aI5
aI3
atp698
a(((lp699
I4
aI1
atp700
(lp701
I7
aI4
atp702
asbag2
(g3
g4
Ntp703
Rp704
(dp705
g8
I00
sg9
Nsg10
g2
(g11
g4
Ntp706
Rp707
(dp708
g15
g16
sg17
(lp709
g2
(g11
g4
Ntp710
Rp711
(dp712
g15
g22
sg17
(lp713
g25
asbag25
asbsg15
Vcount-head-in-tail
p714
sg34
(lp715
(((lp716
I1
aI1
aI2
atp717
I1
tp718
a(((lp719
I1
aI2
aI3
atp720
I0
tp721
a(((lp722
I2
aI1
aI2
atp723
I1
tp724
a(((lp725
I2
aI3
aI4
atp726
I0
tp727
a(((lp728
I0
aI5
aI4
aI0
aI2
atp729
I1
tp730
a(((lp731
I3
aI1
aI3
aI3
aI2
atp732
I2
tp733
a(((lp734
I4
aI2
aI6
aI10
aI8
aI12
atp735
I0
tp736
asbag2
(g3
g4
Ntp737
Rp738
(dp739
g8
I00
sg9
Nsg10
g2
(g11
g4
Ntp740
Rp741
(dp742
g15
g16
sg17
(lp743
g2
(g11
g4
Ntp744
Rp745
(dp746
g15
g22
sg17
(lp747
g25
asbag25
asbsg15
Vcount-k with k=2
p748
sg34
(lp749
(((lp750
I5
aI2
aI15
aI6
aI3
atp751
I1
tp752
a(((lp753
I13
aI2
aI2
aI2
aI2
aI14
atp754
I4
tp755
a(((lp756
I4
atp757
I0
tp758
a(((lp759
tp760
I0
tp761
a(((lp762
I16
aI11
aI13
aI4
aI16
aI1
aI12
atp763
I0
tp764
a(((lp765
I2
aI2
aI2
aI2
aI2
aI2
aI2
atp766
I7
tp767
a(((lp768
I15
aI10
aI4
aI5
aI5
aI2
atp769
I1
tp770
a(((lp771
I3
aI6
aI4
atp772
I0
tp773
a(((lp774
I1
aI8
aI2
aI2
aI12
aI4
aI1
atp775
I2
tp776
a(((lp777
I7
aI15
aI2
atp778
I1
tp779
asbag2
(g3
g4
Ntp780
Rp781
(dp782
g8
I00
sg9
Nsg10
g2
(g11
g4
Ntp783
Rp784
(dp785
g15
g16
sg17
(lp786
g2
(g11
g4
Ntp787
Rp788
(dp789
g15
g22
sg17
(lp790
g25
asbag25
asbsg15
Vcount-k with k=3
p791
sg34
(lp792
(((lp793
I3
aI3
aI3
aI3
aI3
atp794
I5
tp795
a(((lp796
tp797
I0
tp798
a(((lp799
I3
aI3
atp800
I2
tp801
a(((lp802
I15
aI3
aI3
aI3
aI3
atp803
I4
tp804
a(((lp805
I12
aI15
atp806
I0
tp807
a(((lp808
I9
aI11
aI5
aI5
aI6
aI9
aI10
atp809
I0
tp810
a(((lp811
I2
aI6
aI14
aI1
aI14
aI10
atp812
I0
tp813
a(((lp814
I3
aI6
aI3
aI14
aI11
aI7
atp815
I2
tp816
a(((lp817
I16
aI3
aI9
aI3
atp818
I2
tp819
a(((lp820
I6
aI4
aI3
aI16
atp821
I1
tp822
asbag2
(g3
g4
Ntp823
Rp824
(dp825
g8
I00
sg9
Nsg10
g2
(g11
g4
Ntp826
Rp827
(dp828
g15
g16
sg17
(lp829
g2
(g11
g4
Ntp830
Rp831
(dp832
g15
g22
sg17
(lp833
g25
asbag25
asbsg15
Vcount-k with k=1
p834
sg34
(lp835
(((lp836
I5
aI7
aI13
aI14
aI15
aI4
atp837
I0
tp838
a(((lp839
I1
aI1
aI1
aI1
atp840
I4
tp841
a(((lp842
I1
aI1
aI7
atp843
I2
tp844
a(((lp845
I8
atp846
I0
tp847
a(((lp848
I1
aI1
aI1
aI1
aI1
aI6
atp849
I5
tp850
a(((lp851
I15
aI4
aI12
aI10
aI7
aI14
aI15
atp852
I0
tp853
a(((lp854
I5
aI15
aI12
aI12
aI9
aI4
aI3
atp855
I0
tp856
a(((lp857
I10
aI9
aI10
aI0
aI2
atp858
I0
tp859
a(((lp860
I9
aI16
aI6
aI9
atp861
I0
tp862
a(((lp863
I5
aI7
aI1
aI16
aI1
aI1
aI1
atp864
I4
tp865
asbag2
(g3
g4
Ntp866
Rp867
(dp868
g8
I00
sg9
Nsg10
g2
(g11
g4
Ntp869
Rp870
(dp871
g15
g16
sg17
(lp872
g2
(g11
g4
Ntp873
Rp874
(dp875
g15
g22
sg17
(lp876
g25
asbag2
(g11
g4
Ntp877
Rp878
(dp879
g15
g22
sg17
(lp880
g25
asbasbsg15
Vdedup
p881
sg34
(lp882
(((lp883
I1
aI1
aI1
atp884
(lp885
I1
atp886
a(((lp887
I2
aI5
aI4
aI2
aI2
aI0
aI5
aI1
aI1
atp888
(lp889
I2
aI5
aI4
aI2
aI0
aI5
aI1
atp890
asbag2
(g3
g4
Ntp891
Rp892
(dp893
g8
I00
sg9
Nsg10
g2
(g11
g4
Ntp894
Rp895
(dp896
g15
g16
sg17
(lp897
g2
(g11
g4
Ntp898
Rp899
(dp900
g15
g22
sg17
(lp901
g25
asbag2
(g11
g4
Ntp902
Rp903
(dp904
g15
g22
sg17
(lp905
g25
asbasbsg15
Vdrop-k with k=2
p906
sg34
(lp907
(((lp908
I0
aI12
aI3
aI3
aI4
aI15
aI10
aI10
atp909
(lp910
I3
aI3
aI4
aI15
aI10
aI10
atp911
a(((lp912
I1
aI5
atp913
(lp914
tp915
a(((lp916
I12
aI15
aI16
aI9
aI9
aI15
aI0
atp917
(lp918
I16
aI9
aI9
aI15
aI0
atp919
a(((lp920
I11
aI2
aI15
aI0
atp921
(lp922
I15
aI0
atp923
a(((lp924
I0
aI6
aI1
atp925
(lp926
I1
atp927
a(((lp928
I11
aI16
aI5
atp929
(lp930
I5
atp931
a(((lp932
I16
aI4
aI4
aI5
aI16
aI7
atp933
(lp934
I4
aI5
aI16
aI7
atp935
a(((lp936
I5
aI8
aI4
aI2
aI15
aI3
atp937
(lp938
I4
aI2
aI15
aI3
atp939
a(((lp940
I16
aI15
aI16
aI7
atp941
(lp942
I16
aI7
atp943
a(((lp944
I14
aI6
aI14
aI8
aI16
aI5
aI15
aI15
aI6
atp945
(lp946
I14
aI8
aI16
aI5
aI15
aI15
aI6
atp947
asbag2
(g3
g4
Ntp948
Rp949
(dp950
g8
I00
sg9
Nsg10
g2
(g11
g4
Ntp951
Rp952
(dp953
g15
g16
sg17
(lp954
g2
(g11
g4
Ntp955
Rp956
(dp957
g15
g22
sg17
(lp958
g25
asbag2
(g11
g4
Ntp959
Rp960
(dp961
g15
g22
sg17
(lp962
g25
asbasbsg15
Vdrop-k with k=3
p963
sg34
(lp964
(((lp965
I11
aI3
aI14
aI0
aI1
aI16
atp966
(lp967
I0
aI1
aI16
atp968
a(((lp969
I10
aI4
aI9
aI1
aI0
aI6
aI14
aI13
aI8
aI4
atp970
(lp971
I1
aI0
aI6
aI14
aI13
aI8
aI4
atp972
a(((lp973
I1
aI13
aI0
aI12
aI11
aI8
atp974
(lp975
I12
aI11
aI8
atp976
a(((lp977
I0
aI9
aI14
aI14
aI16
aI7
aI16
aI5
atp978
(lp979
I14
aI16
aI7
aI16
aI5
atp980
a(((lp981
I14
aI12
aI12
atp982
(lp983
tp984
a(((lp985
I4
aI8
aI6
aI6
aI7
aI2
aI7
aI10
aI0
atp986
(lp987
I6
aI7
aI2
aI7
aI10
aI0
atp988
a(((lp989
I9
aI8
aI5
aI15
aI11
aI1
atp990
(lp991
I15
aI11
aI1
atp992
a(((lp993
I13
aI16
aI9
aI13
atp994
(lp995
I13
atp996
a(((lp997
I15
aI0
aI7
aI4
aI9
aI1
atp998
(lp999
I4
aI9
aI1
atp1000
a(((lp1001
I3
aI0
aI1
aI6
atp1002
(lp1003
I6
atp1004
asbag2
(g3
g4
Ntp1005
Rp1006
(dp1007
g8
I00
sg9
Nsg10
g2
(g11
g4
Ntp1008
Rp1009
(dp1010
g15
g16
sg17
(lp1011
g2
(g11
g4
Ntp1012
Rp1013
(dp1014
g15
g22
sg17
(lp1015
g25
asbag2
(g11
g4
Ntp1016
Rp1017
(dp1018
g15
g22
sg17
(lp1019
g25
asbasbsg15
Vdrop-k with k=5
p1020
sg34
(lp1021
(((lp1022
I12
aI8
aI15
aI16
aI0
aI4
aI14
aI2
atp1023
(lp1024
I4
aI14
aI2
atp1025
a(((lp1026
I6
aI11
aI2
aI3
aI9
aI11
aI11
aI2
aI12
aI2
aI2
atp1027
(lp1028
I11
aI11
aI2
aI12
aI2
aI2
atp1029
a(((lp1030
I3
aI5
aI10
aI14
aI12
aI3
aI5
atp1031
(lp1032
I3
aI5
atp1033
a(((lp1034
I2
aI1
aI13
aI7
aI3
atp1035
(lp1036
tp1037
a(((lp1038
I13
aI3
aI0
aI9
aI3
aI4
aI14
aI13
aI3
aI6
atp1039
(lp1040
I4
aI14
aI13
aI3
aI6
atp1041
a(((lp1042
I5
aI14
aI1
aI6
aI7
aI8
aI14
aI12
aI15
aI12
aI14
aI7
atp1043
(lp1044
I8
aI14
aI12
aI15
aI12
aI14
aI7
atp1045
a(((lp1046
I1
aI6
aI8
aI11
aI11
aI8
aI5
aI14
aI3
aI9
aI8
aI3
atp1047
(lp1048
I8
aI5
aI14
aI3
aI9
aI8
aI3
atp1049
a(((lp1050
I11
aI8
aI13
aI16
aI8
aI11
aI5
aI6
aI11
aI8
atp1051
(lp1052
I11
aI5
aI6
aI11
aI8
atp1053
a(((lp1054
I4
aI0
aI15
aI7
aI4
aI16
aI5
aI4
aI13
aI15
aI9
atp1055
(lp1056
I16
aI5
aI4
aI13
aI15
aI9
atp1057
a(((lp1058
I5
aI15
aI3
aI3
aI14
aI7
atp1059
(lp1060
I7
atp1061
asbag2
(g3
g4
Ntp1062
Rp1063
(dp1064
g8
I00
sg9
Nsg10
g2
(g11
g4
Ntp1065
Rp1066
(dp1067
g15
g16
sg17
(lp1068
g2
(g11
g4
Ntp1069
Rp1070
(dp1071
g15
g22
sg17
(lp1072
g25
asbag2
(g11
g4
Ntp1073
Rp1074
(dp1075
g15
g22
sg17
(lp1076
g25
asbasbsg15
Vdup
p1077
sg34
(lp1078
(((lp1079
I0
atp1080
(lp1081
I0
aI0
atp1082
a(((lp1083
I7
aI2
aI4
atp1084
(lp1085
I7
aI7
aI2
aI2
aI4
aI4
atp1086
asbag2
(g3
g4
Ntp1087
Rp1088
(dp1089
g8
I00
sg9
Nsg10
g2
(g11
g4
Ntp1090
Rp1091
(dp1092
g15
g16
sg17
(lp1093
g2
(g11
g4
Ntp1094
Rp1095
(dp1096
g15
g22
sg17
(lp1097
g25
asbag2
(g11
g4
Ntp1098
Rp1099
(dp1100
g15
g22
sg17
(lp1101
g25
asbasbsg15
Vevens
p1102
sg34
(lp1103
(((lp1104
I2
aI0
aI4
atp1105
(lp1106
I2
aI0
aI4
atp1107
a(((lp1108
I2
aI5
aI4
aI2
aI0
aI5
aI1
aI1
atp1109
(lp1110
I2
aI4
aI2
aI0
atp1111
a(((lp1112
I6
atp1113
(lp1114
I6
atp1115
a(((lp1116
I9
aI2
aI13
aI16
aI16
atp1117
(lp1118
I2
aI16
aI16
atp1119
a(((lp1120
I13
aI15
aI11
aI2
aI8
aI2
atp1121
(lp1122
I2
aI8
aI2
atp1123
a(((lp1124
I15
atp1125
(lp1126
tp1127
a(((lp1128
I3
aI12
aI6
aI3
aI12
aI12
atp1129
(lp1130
I12
aI6
aI12
aI12
atp1131
a(((lp1132
I2
aI11
aI3
atp1133
(lp1134
I2
atp1135
a(((lp1136
I10
aI4
atp1137
(lp1138
I10
aI4
atp1139
a(((lp1140
I10
aI9
aI5
atp1141
(lp1142
I10
atp1143
asbag2
(g3
g4
Ntp1144
Rp1145
(dp1146
g8
I00
sg9
Nsg10
g2
(g11
g4
Ntp1147
Rp1148
(dp1149
g15
g16
sg17
(lp1150
g2
(g11
g4
Ntp1151
Rp1152
(dp1153
g15
g22
sg17
(lp1154
g25
asbag2
(g11
g4
Ntp1155
Rp1156
(dp1157
g15
S'tbool'
p1158
sg17
(lp1159
sbasbsg15
Vhas-head-in-tail
p1160
sg34
(lp1161
(((lp1162
I1
aI1
aI2
atp1163
I01
tp1164
a(((lp1165
I1
aI2
aI3
atp1166
I00
tp1167
a(((lp1168
I2
aI1
aI2
atp1169
I01
tp1170
a(((lp1171
I2
aI3
aI4
atp1172
I00
tp1173
a(((lp1174
I3
aI1
aI3
aI4
aI2
atp1175
I01
tp1176
a(((lp1177
I4
aI2
aI6
aI10
aI8
aI12
atp1178
I00
tp1179
asbag2
(g3
g4
Ntp1180
Rp1181
(dp1182
g8
I00
sg9
Nsg10
g2
(g11
g4
Ntp1183
Rp1184
(dp1185
g15
g16
sg17
(lp1186
g2
(g11
g4
Ntp1187
Rp1188
(dp1189
g15
g22
sg17
(lp1190
g25
asbag1156
asbsg15
Vhas-k with k=2
p1191
sg34
(lp1192
(((lp1193
I2
atp1194
I01
tp1195
a(((lp1196
I12
aI7
aI10
aI6
aI7
aI11
atp1197
I00
tp1198
a(((lp1199
tp1200
I00
tp1201
a(((lp1202
I10
aI7
aI5
aI2
aI9
atp1203
I01
tp1204
a(((lp1205
I2
aI2
atp1206
I01
tp1207
a(((lp1208
I10
aI4
aI2
aI13
aI9
aI12
atp1209
I01
tp1210
a(((lp1211
I0
aI12
aI14
aI0
aI16
aI1
atp1212
I00
tp1213
a(((lp1214
tp1215
I00
tp1216
a(((lp1217
tp1218
I00
tp1219
a(((lp1220
I1
aI3
aI12
atp1221
I00
tp1222
asbag2
(g3
g4
Ntp1223
Rp1224
(dp1225
g8
I00
sg9
Nsg10
g2
(g11
g4
Ntp1226
Rp1227
(dp1228
g15
g16
sg17
(lp1229
g2
(g11
g4
Ntp1230
Rp1231
(dp1232
g15
g22
sg17
(lp1233
g25
asbag1156
asbsg15
Vhas-k with k=3
p1234
sg34
(lp1235
(((lp1236
tp1237
I00
tp1238
a(((lp1239
I9
aI12
aI9
aI6
atp1240
I00
tp1241
a(((lp1242
I9
aI10
aI8
aI4
aI13
aI6
atp1243
I00
tp1244
a(((lp1245
I3
aI3
aI1
aI3
atp1246
I01
tp1247
a(((lp1248
I12
atp1249
I00
tp1250
a(((lp1251
I2
aI7
aI10
aI16
aI4
aI8
aI2
atp1252
I00
tp1253
a(((lp1254
I3
aI5
aI3
aI3
aI13
aI3
atp1255
I01
tp1256
a(((lp1257
I13
aI8
aI2
atp1258
I00
tp1259
a(((lp1260
I6
aI10
aI13
aI0
aI3
atp1261
I01
tp1262
a(((lp1263
I3
aI3
aI3
aI3
aI11
aI3
atp1264
I01
tp1265
asbag2
(g3
g4
Ntp1266
Rp1267
(dp1268
g8
I00
sg9
Nsg10
g2
(g11
g4
Ntp1269
Rp1270
(dp1271
g15
g16
sg17
(lp1272
g2
(g11
g4
Ntp1273
Rp1274
(dp1275
g15
g22
sg17
(lp1276
g25
asbag1156
asbsg15
Vhas-k with k=7
p1277
sg34
(lp1278
(((lp1279
I7
aI7
aI3
aI7
aI6
atp1280
I01
tp1281
a(((lp1282
I7
aI7
atp1283
I01
tp1284
a(((lp1285
I14
aI7
aI0
aI14
aI7
aI8
atp1286
I01
tp1287
a(((lp1288
I7
aI7
aI7
aI4
aI13
aI6
atp1289
I01
tp1290
a(((lp1291
I7
aI16
atp1292
I01
tp1293
a(((lp1294
I7
aI7
aI7
aI7
aI7
aI7
aI7
atp1295
I01
tp1296
a(((lp1297
I4
aI8
aI7
aI7
atp1298
I01
tp1299
a(((lp1300
tp1301
I00
tp1302
a(((lp1303
I4
aI10
aI6
aI0
aI0
aI6
aI7
atp1304
I01
tp1305
a(((lp1306
I7
aI8
aI7
aI5
aI16
atp1307
I01
tp1308
asbag2
(g3
g4
Ntp1309
Rp1310
(dp1311
g8
I00
sg9
Nsg10
g2
(g11
g4
Ntp1312
Rp1313
(dp1314
g15
g16
sg17
(lp1315
g2
(g11
g4
Ntp1316
Rp1317
(dp1318
g15
g22
sg17
(lp1319
g25
asbag25
asbsg15
Vhead
p1320
sg34
(lp1321
(((lp1322
I1
aI2
aI3
atp1323
I1
tp1324
a(((lp1325
I0
atp1326
I0
tp1327
a(((lp1328
I1
aI1
aI2
aI1
atp1329
I1
tp1330
asbag2
(g3
g4
Ntp1331
Rp1332
(dp1333
g8
I00
sg9
Nsg10
g2
(g11
g4
Ntp1334
Rp1335
(dp1336
g15
g16
sg17
(lp1337
g2
(g11
g4
Ntp1338
Rp1339
(dp1340
g15
g22
sg17
(lp1341
g25
asbag25
asbsg15
Vindex-head
p1342
sg34
(lp1343
(((lp1344
I1
aI1
aI2
atp1345
I1
tp1346
a(((lp1347
I1
aI2
aI3
atp1348
I2
tp1349
a(((lp1350
I2
aI1
aI2
atp1351
I2
tp1352
a(((lp1353
I2
aI3
aI4
atp1354
I4
tp1355
a(((lp1356
I3
aI1
aI3
aI4
aI2
atp1357
I4
tp1358
a(((lp1359
I4
aI2
aI6
aI10
aI8
aI12
atp1360
I8
tp1361
a(((lp1362
I1
aI15
aI9
aI9
aI6
aI4
atp1363
I15
tp1364
a(((lp1365
I2
aI13
aI11
aI1
atp1366
I11
tp1367
a(((lp1368
I2
aI3
aI2
aI12
aI0
aI5
atp1369
I2
tp1370
a(((lp1371
I2
aI8
aI3
aI16
aI8
atp1372
I3
tp1373
asbag2
(g3
g4
Ntp1374
Rp1375
(dp1376
g8
I00
sg9
Nsg10
g2
(g11
g4
Ntp1377
Rp1378
(dp1379
g15
g16
sg17
(lp1380
g2
(g11
g4
Ntp1381
Rp1382
(dp1383
g15
g22
sg17
(lp1384
g25
asbag25
asbsg15
Vindex-k with k=2
p1385
sg34
(lp1386
(((lp1387
I12
aI12
aI0
aI14
atp1388
I12
tp1389
a(((lp1390
I0
aI14
aI3
aI15
atp1391
I14
tp1392
a(((lp1393
I4
aI7
aI13
aI14
aI3
aI15
aI1
aI13
aI9
atp1394
I7
tp1395
a(((lp1396
I10
aI10
aI9
aI11
aI11
atp1397
I10
tp1398
a(((lp1399
I7
aI9
aI16
aI12
aI13
aI4
aI10
atp1400
I9
tp1401
a(((lp1402
I2
aI14
aI11
aI11
aI1
aI15
aI14
aI1
atp1403
I14
tp1404
a(((lp1405
I6
aI6
aI10
atp1406
I6
tp1407
a(((lp1408
I16
aI6
aI1
aI8
atp1409
I6
tp1410
a(((lp1411
I9
aI9
atp1412
I9
tp1413
a(((lp1414
I15
aI8
aI3
aI8
aI11
aI16
aI7
aI10
aI8
atp1415
I8
tp1416
asbag2
(g3
g4
Ntp1417
Rp1418
(dp1419
g8
I00
sg9
Nsg10
g2
(g11
g4
Ntp1420
Rp1421
(dp1422
g15
g16
sg17
(lp1423
g2
(g11
g4
Ntp1424
Rp1425
(dp1426
g15
g22
sg17
(lp1427
g25
asbag25
asbsg15
Vindex-k with k=3
p1428
sg34
(lp1429
(((lp1430
I7
aI16
aI11
aI9
atp1431
I11
tp1432
a(((lp1433
I14
aI9
aI6
aI11
aI14
aI0
aI8
atp1434
I6
tp1435
a(((lp1436
I6
aI11
aI8
aI15
aI13
aI8
aI8
atp1437
I8
tp1438
a(((lp1439
I1
aI15
aI13
atp1440
I13
tp1441
a(((lp1442
I2
aI1
aI4
aI4
atp1443
I4
tp1444
a(((lp1445
I14
aI9
aI11
aI9
aI1
aI6
atp1446
I11
tp1447
a(((lp1448
I2
aI6
aI7
aI2
aI13
atp1449
I7
tp1450
a(((lp1451
I8
aI4
aI8
aI10
aI0
aI11
atp1452
I8
tp1453
a(((lp1454
I4
aI5
aI0
aI0
aI12
aI4
atp1455
I0
tp1456
a(((lp1457
I1
aI6
aI11
aI6
aI4
aI11
atp1458
I11
tp1459
asbag2
(g3
g4
Ntp1460
Rp1461
(dp1462
g8
I00
sg9
Nsg10
g2
(g11
g4
Ntp1463
Rp1464
(dp1465
g15
g16
sg17
(lp1466
g2
(g11
g4
Ntp1467
Rp1468
(dp1469
g15
g22
sg17
(lp1470
g25
asbag2
(g11
g4
Ntp1471
Rp1472
(dp1473
g15
g22
sg17
(lp1474
g25
asbasbsg15
Vintersperse-k with k=1
p1475
sg34
(lp1476
(((lp1477
I14
aI8
aI1
atp1478
(lp1479
I14
aI1
aI8
aI1
aI1
atp1480
a(((lp1481
I13
aI6
atp1482
(lp1483
I13
aI1
aI6
atp1484
a(((lp1485
I10
aI13
aI1
aI11
aI11
atp1486
(lp1487
I10
aI1
aI13
aI1
aI1
aI1
aI11
aI1
aI11
atp1488
a(((lp1489
I12
aI0
aI0
aI6
atp1490
(lp1491
I12
aI1
aI0
aI1
aI0
aI1
aI6
atp1492
a(((lp1493
I15
aI2
aI14
aI16
atp1494
(lp1495
I15
aI1
aI2
aI1
aI14
aI1
aI16
atp1496
a(((lp1497
tp1498
(lp1499
tp1500
a(((lp1501
I12
aI0
aI5
aI14
aI12
atp1502
(lp1503
I12
aI1
aI0
aI1
aI5
aI1
aI14
aI1
aI12
atp1504
a(((lp1505
I7
aI4
aI8
aI0
aI0
atp1506
(lp1507
I7
aI1
aI4
aI1
aI8
aI1
aI0
aI1
aI0
atp1508
a(((lp1509
tp1510
(lp1511
tp1512
a(((lp1513
I12
aI7
aI4
aI4
aI16
aI13
aI0
atp1514
(lp1515
I12
aI1
aI7
aI1
aI4
aI1
aI4
aI1
aI16
aI1
aI13
aI1
aI0
atp1516
asbag2
(g3
g4
Ntp1517
Rp1518
(dp1519
g8
I00
sg9
Nsg10
g2
(g11
g4
Ntp1520
Rp1521
(dp1522
g15
g16
sg17
(lp1523
g2
(g11
g4
Ntp1524
Rp1525
(dp1526
g15
g22
sg17
(lp1527
g25
asbag2
(g11
g4
Ntp1528
Rp1529
(dp1530
g15
g22
sg17
(lp1531
g25
asbasbsg15
Vintersperse-k with k=2
p1532
sg34
(lp1533
(((lp1534
I13
aI9
aI15
aI13
atp1535
(lp1536
I13
aI2
aI9
aI2
aI15
aI2
aI13
atp1537
a(((lp1538
I5
atp1539
(lp1540
I5
atp1541
a(((lp1542
I9
aI8
aI6
atp1543
(lp1544
I9
aI2
aI8
aI2
aI6
atp1545
a(((lp1546
I1
atp1547
(lp1548
I1
atp1549
a(((lp1550
I1
aI12
atp1551
(lp1552
I1
aI2
aI12
atp1553
a(((lp1554
I16
aI4
aI11
aI16
aI1
atp1555
(lp1556
I16
aI2
aI4
aI2
aI11
aI2
aI16
aI2
aI1
atp1557
a(((lp1558
I16
aI14
aI6
aI4
aI2
aI4
aI4
atp1559
(lp1560
I16
aI2
aI14
aI2
aI6
aI2
aI4
aI2
aI2
aI2
aI4
aI2
aI4
atp1561
a(((lp1562
tp1563
(lp1564
tp1565
a(((lp1566
I2
aI6
aI4
aI2
aI6
aI9
aI13
atp1567
(lp1568
I2
aI2
aI6
aI2
aI4
aI2
aI2
aI2
aI6
aI2
aI9
aI2
aI13
atp1569
a(((lp1570
I10
aI10
aI1
aI3
atp1571
(lp1572
I10
aI2
aI10
aI2
aI1
aI2
aI3
atp1573
asbag2
(g3
g4
Ntp1574
Rp1575
(dp1576
g8
I00
sg9
Nsg10
g2
(g11
g4
Ntp1577
Rp1578
(dp1579
g15
g16
sg17
(lp1580
g2
(g11
g4
Ntp1581
Rp1582
(dp1583
g15
g22
sg17
(lp1584
g25
asbag2
(g11
g4
Ntp1585
Rp1586
(dp1587
g15
g22
sg17
(lp1588
g25
asbasbsg15
Vintersperse-k with k=-2
p1589
sg34
(lp1590
(((lp1591
I12
atp1592
(lp1593
I12
atp1594
a(((lp1595
I2
aI11
aI11
aI15
aI2
atp1596
(lp1597
I2
aI-2
aI11
aI-2
aI11
aI-2
aI15
aI-2
aI2
atp1598
a(((lp1599
I15
aI12
aI3
aI16
aI8
atp1600
(lp1601
I15
aI-2
aI12
aI-2
aI3
aI-2
aI16
aI-2
aI8
atp1602
a(((lp1603
I15
aI11
aI12
aI12
aI0
aI0
aI15
atp1604
(lp1605
I15
aI-2
aI11
aI-2
aI12
aI-2
aI12
aI-2
aI0
aI-2
aI0
aI-2
aI15
atp1606
a(((lp1607
I11
atp1608
(lp1609
I11
atp1610
a(((lp1611
I8
aI13
aI15
aI3
aI13
atp1612
(lp1613
I8
aI-2
aI13
aI-2
aI15
aI-2
aI3
aI-2
aI13
atp1614
a(((lp1615
tp1616
(lp1617
tp1618
a(((lp1619
I12
aI9
aI4
aI3
aI7
aI4
aI0
atp1620
(lp1621
I12
aI-2
aI9
aI-2
aI4
aI-2
aI3
aI-2
aI7
aI-2
aI4
aI-2
aI0
atp1622
a(((lp1623
tp1624
(lp1625
tp1626
a(((lp1627
I5
aI4
aI6
aI13
aI0
atp1628
(lp1629
I5
aI-2
aI4
aI-2
aI6
aI-2
aI13
aI-2
aI0
atp1630
asbag2
(g3
g4
Ntp1631
Rp1632
(dp1633
g8
I00
sg9
Nsg10
g2
(g11
g4
Ntp1634
Rp1635
(dp1636
g15
g16
sg17
(lp1637
g2
(g11
g4
Ntp1638
Rp1639
(dp1640
g15
g22
sg17
(lp1641
g25
asbag2
(g11
g4
Ntp1642
Rp1643
(dp1644
g15
g22
sg17
(lp1645
g25
asbasbsg15
Vintersperse-k with k=0
p1646
sg34
(lp1647
(((lp1648
I5
atp1649
(lp1650
I5
atp1651
a(((lp1652
I5
aI11
aI3
aI3
aI12
aI15
aI7
atp1653
(lp1654
I5
aI0
aI11
aI0
aI3
aI0
aI3
aI0
aI12
aI0
aI15
aI0
aI7
atp1655
a(((lp1656
I6
aI13
aI15
aI5
atp1657
(lp1658
I6
aI0
aI13
aI0
aI15
aI0
aI5
atp1659
a(((lp1660
I15
aI0
atp1661
(lp1662
I15
aI0
aI0
atp1663
a(((lp1664
I12
aI16
atp1665
(lp1666
I12
aI0
aI16
atp1667
a(((lp1668
tp1669
(lp1670
tp1671
a(((lp1672
I0
aI15
aI11
aI7
atp1673
(lp1674
I0
aI0
aI15
aI0
aI11
aI0
aI7
atp1675
a(((lp1676
I6
aI2
aI4
aI8
aI8
atp1677
(lp1678
I6
aI0
aI2
aI0
aI4
aI0
aI8
aI0
aI8
atp1679
a(((lp1680
I6
aI16
aI2
aI7
aI3
atp1681
(lp1682
I6
aI0
aI16
aI0
aI2
aI0
aI7
aI0
aI3
atp1683
a(((lp1684
I0
aI6
aI9
aI3
aI6
atp1685
(lp1686
I0
aI0
aI6
aI0
aI9
aI0
aI3
aI0
aI6
atp1687
asbag2
(g3
g4
Ntp1688
Rp1689
(dp1690
g8
I00
sg9
Nsg10
g2
(g11
g4
Ntp1691
Rp1692
(dp1693
g15
g16
sg17
(lp1694
g2
(g11
g4
Ntp1695
Rp1696
(dp1697
g15
g22
sg17
(lp1698
g25
asbag1156
asbsg15
Vis-evens
p1699
sg34
(lp1700
(((lp1701
I2
aI0
aI4
atp1702
I01
tp1703
a(((lp1704
I2
aI5
aI4
aI2
aI0
aI5
aI1
aI1
atp1705
I00
tp1706
asbag2
(g3
g4
Ntp1707
Rp1708
(dp1709
g8
I00
sg9
Nsg10
g2
(g11
g4
Ntp1710
Rp1711
(dp1712
g15
g16
sg17
(lp1713
g2
(g11
g4
Ntp1714
Rp1715
(dp1716
g15
g22
sg17
(lp1717
g25
asbag1156
asbsg15
Vis-mod-k with k=2
p1718
sg34
(lp1719
(((lp1720
I0
aI20
aI20
atp1721
I01
tp1722
a(((lp1723
I8
aI16
aI2
aI8
aI7
aI11
aI12
atp1724
I00
tp1725
a(((lp1726
I16
aI0
aI26
aI32
aI30
aI12
aI32
atp1727
I01
tp1728
a(((lp1729
I16
atp1730
I01
tp1731
a(((lp1732
I14
aI30
aI8
aI10
aI24
aI18
aI0
atp1733
I01
tp1734
a(((lp1735
I26
aI18
aI22
aI26
atp1736
I01
tp1737
a(((lp1738
I30
aI6
aI16
aI6
aI2
atp1739
I01
tp1740
a(((lp1741
I7
atp1742
I00
tp1743
a(((lp1744
I5
aI6
atp1745
I00
tp1746
a(((lp1747
I8
aI20
aI16
aI32
aI14
aI16
aI10
atp1748
I01
tp1749
asbag2
(g3
g4
Ntp1750
Rp1751
(dp1752
g8
I00
sg9
Nsg10
g2
(g11
g4
Ntp1753
Rp1754
(dp1755
g15
g16
sg17
(lp1756
g2
(g11
g4
Ntp1757
Rp1758
(dp1759
g15
g22
sg17
(lp1760
g25
asbag1156
asbsg15
Vis-mod-k with k=3
p1761
sg34
(lp1762
(((lp1763
tp1764
I01
tp1765
a(((lp1766
I9
aI42
aI45
atp1767
I01
tp1768
a(((lp1769
I0
aI30
aI33
aI48
aI27
atp1770
I01
tp1771
a(((lp1772
tp1773
I01
tp1774
a(((lp1775
I1
atp1776
I00
tp1777
a(((lp1778
I39
aI30
aI0
atp1779
I01
tp1780
a(((lp1781
I6
aI24
aI33
atp1782
I01
tp1783
a(((lp1784
I45
atp1785
I01
tp1786
a(((lp1787
I45
atp1788
I01
tp1789
a(((lp1790
I3
aI45
aI18
atp1791
I01
tp1792
asbag2
(g3
g4
Ntp1793
Rp1794
(dp1795
g8
I00
sg9
Nsg10
g2
(g11
g4
Ntp1796
Rp1797
(dp1798
g15
g16
sg17
(lp1799
g2
(g11
g4
Ntp1800
Rp1801
(dp1802
g15
g22
sg17
(lp1803
g25
asbag1156
asbsg15
Vis-mod-k with k=5
p1804
sg34
(lp1805
(((lp1806
I15
aI40
aI15
aI0
aI65
aI75
atp1807
I01
tp1808
a(((lp1809
tp1810
I01
tp1811
a(((lp1812
I5
aI14
aI1
aI3
aI12
atp1813
I00
tp1814
a(((lp1815
tp1816
I01
tp1817
a(((lp1818
I2
aI11
aI9
aI4
aI13
aI10
atp1819
I00
tp1820
a(((lp1821
I9
aI16
aI12
aI10
aI4
atp1822
I00
tp1823
a(((lp1824
I60
aI45
aI55
aI35
aI45
aI50
atp1825
I01
tp1826
a(((lp1827
I8
aI6
aI2
atp1828
I00
tp1829
a(((lp1830
I40
aI5
aI50
aI45
aI10
aI60
atp1831
I01
tp1832
a(((lp1833
I45
aI15
atp1834
I01
tp1835
asbag2
(g3
g4
Ntp1836
Rp1837
(dp1838
g8
I00
sg9
Nsg10
g2
(g11
g4
Ntp1839
Rp1840
(dp1841
g15
g16
sg17
(lp1842
g2
(g11
g4
Ntp1843
Rp1844
(dp1845
g15
g22
sg17
(lp1846
g25
asbag1156
asbsg15
Vis-odds
p1847
sg34
(lp1848
(((lp1849
I2
aI0
aI4
atp1850
I00
tp1851
a(((lp1852
I2
aI5
aI4
aI2
aI0
aI5
aI1
aI1
atp1853
I00
tp1854
asbag2
(g3
g4
Ntp1855
Rp1856
(dp1857
g8
I00
sg9
Nsg10
g2
(g11
g4
Ntp1858
Rp1859
(dp1860
g15
g16
sg17
(lp1861
g2
(g11
g4
Ntp1862
Rp1863
(dp1864
g15
g22
sg17
(lp1865
g25
asbag1156
asbsg15
Vis-primes
p1866
sg34
(lp1867
(((lp1868
I2
atp1869
I01
tp1870
a(((lp1871
I2
aI0
atp1872
I00
tp1873
a(((lp1874
I5
aI11
atp1875
I01
tp1876
a(((lp1877
I5
aI11
aI12
atp1878
I00
tp1879
a(((lp1880
tp1881
I01
tp1882
a(((lp1883
tp1884
I01
tp1885
a(((lp1886
I8
aI13
aI7
aI7
atp1887
I00
tp1888
a(((lp1889
I13
atp1890
I01
tp1891
a(((lp1892
I5
aI11
aI15
aI13
aI10
aI15
atp1893
I00
tp1894
a(((lp1895
I109
aI17
atp1896
I01
tp1897
asbag2
(g3
g4
Ntp1898
Rp1899
(dp1900
g8
I00
sg9
Nsg10
g2
(g11
g4
Ntp1901
Rp1902
(dp1903
g15
g16
sg17
(lp1904
g2
(g11
g4
Ntp1905
Rp1906
(dp1907
g15
g22
sg17
(lp1908
g25
asbag1156
asbsg15
Vis-squares
p1909
sg34
(lp1910
(((lp1911
I25
atp1912
I01
tp1913
a(((lp1914
I3
atp1915
I00
tp1916
a(((lp1917
I1
aI4
atp1918
I01
tp1919
a(((lp1920
I1
aI4
aI9
atp1921
I01
tp1922
a(((lp1923
I1
aI4
aI9
aI15
atp1924
I00
tp1925
asbag2
(g3
g4
Ntp1926
Rp1927
(dp1928
g8
I00
sg9
Nsg10
g2
(g11
g4
Ntp1929
Rp1930
(dp1931
g15
g16
sg17
(lp1932
g2
(g11
g4
Ntp1933
Rp1934
(dp1935
g15
g22
sg17
(lp1936
g25
asbag2
(g11
g4
Ntp1937
Rp1938
(dp1939
g15
g22
sg17
(lp1940
g25
asbasbsg15
Vkeep-mod-head
p1941
sg34
(lp1942
(((lp1943
I3
aI1
aI3
aI4
aI7
aI6
aI9
aI2
atp1944
(lp1945
I3
aI6
aI9
atp1946
a(((lp1947
I4
aI2
aI6
aI10
aI8
aI12
atp1948
(lp1949
I8
aI12
atp1950
a(((lp1951
I1
aI2
aI3
atp1952
(lp1953
I2
aI3
atp1954
a(((lp1955
I9
aI7
aI13
aI6
aI7
aI11
atp1956
(lp1957
tp1958
a(((lp1959
I10
aI0
aI80
aI3
aI20
atp1960
(lp1961
I0
aI80
aI20
atp1962
a(((lp1963
I4
aI20
aI36
aI12
atp1964
(lp1965
I20
aI36
aI12
atp1966
a(((lp1967
I9
aI9
atp1968
(lp1969
I9
atp1970
a(((lp1971
I3
aI27
aI12
aI0
aI0
atp1972
(lp1973
I27
aI12
aI0
aI0
atp1974
a(((lp1975
I1
aI14
aI14
aI13
aI16
atp1976
(lp1977
I14
aI14
aI13
aI16
atp1978
a(((lp1979
I3
aI8
aI4
aI2
atp1980
(lp1981
tp1982
asbag2
(g3
g4
Ntp1983
Rp1984
(dp1985
g8
I00
sg9
Nsg10
g2
(g11
g4
Ntp1986
Rp1987
(dp1988
g15
g16
sg17
(lp1989
g2
(g11
g4
Ntp1990
Rp1991
(dp1992
g15
g22
sg17
(lp1993
g25
asbag2
(g11
g4
Ntp1994
Rp1995
(dp1996
g15
g22
sg17
(lp1997
g25
asbasbsg15
Vkeep-mod-k with k=2
p1998
sg34
(lp1999
(((lp2000
tp2001
(lp2002
tp2003
a(((lp2004
I14
aI10
aI13
atp2005
(lp2006
I14
aI10
atp2007
a(((lp2008
tp2009
(lp2010
tp2011
a(((lp2012
I5
aI11
aI11
aI11
aI7
aI0
aI4
atp2013
(lp2014
I0
aI4
atp2015
a(((lp2016
I7
atp2017
(lp2018
tp2019
a(((lp2020
I10
aI12
aI0
aI6
aI8
aI8
atp2021
(lp2022
I10
aI12
aI0
aI6
aI8
aI8
atp2023
a(((lp2024
I1
aI10
aI2
atp2025
(lp2026
I10
aI2
atp2027
a(((lp2028
I4
aI0
aI2
aI18
aI14
atp2029
(lp2030
I4
aI0
aI2
aI18
aI14
atp2031
a(((lp2032
I2
aI16
aI7
aI10
aI12
aI1
atp2033
(lp2034
I2
aI16
aI10
aI12
atp2035
a(((lp2036
I2
aI3
aI7
aI9
aI13
aI2
atp2037
(lp2038
I2
aI2
atp2039
asbag2
(g3
g4
Ntp2040
Rp2041
(dp2042
g8
I00
sg9
Nsg10
g2
(g11
g4
Ntp2043
Rp2044
(dp2045
g15
g16
sg17
(lp2046
g2
(g11
g4
Ntp2047
Rp2048
(dp2049
g15
g22
sg17
(lp2050
g25
asbag2
(g11
g4
Ntp2051
Rp2052
(dp2053
g15
g22
sg17
(lp2054
g25
asbasbsg15
Vkeep-mod-k with k=3
p2055
sg34
(lp2056
(((lp2057
I14
aI4
aI8
aI2
aI12
atp2058
(lp2059
I12
atp2060
a(((lp2061
tp2062
(lp2063
tp2064
a(((lp2065
I3
aI9
aI6
aI6
aI9
atp2066
(lp2067
I3
aI9
aI6
aI6
aI9
atp2068
a(((lp2069
I9
aI4
aI24
aI27
aI7
aI4
atp2070
(lp2071
I9
aI24
aI27
atp2072
a(((lp2073
I0
atp2074
(lp2075
I0
atp2076
a(((lp2077
I9
aI13
aI4
aI5
aI15
aI0
atp2078
(lp2079
I9
aI15
aI0
atp2080
a(((lp2081
I8
aI13
aI12
atp2082
(lp2083
I12
atp2084
a(((lp2085
I7
aI4
aI15
atp2086
(lp2087
I15
atp2088
a(((lp2089
I3
aI5
aI6
aI7
aI7
aI4
atp2090
(lp2091
I3
aI6
atp2092
a(((lp2093
I6
atp2094
(lp2095
I6
atp2096
asbag2
(g3
g4
Ntp2097
Rp2098
(dp2099
g8
I00
sg9
Nsg10
g2
(g11
g4
Ntp2100
Rp2101
(dp2102
g15
g16
sg17
(lp2103
g2
(g11
g4
Ntp2104
Rp2105
(dp2106
g15
g22
sg17
(lp2107
g25
asbag2
(g11
g4
Ntp2108
Rp2109
(dp2110
g15
g22
sg17
(lp2111
g25
asbasbsg15
Vkeep-mod-k with k=5
p2112
sg34
(lp2113
(((lp2114
I2
aI9
aI13
aI8
aI9
atp2115
(lp2116
tp2117
a(((lp2118
I30
aI30
aI35
atp2119
(lp2120
I30
aI30
aI35
atp2121
a(((lp2122
I0
aI8
atp2123
(lp2124
I0
atp2125
a(((lp2126
I20
atp2127
(lp2128
I20
atp2129
a(((lp2130
I11
aI0
aI6
atp2131
(lp2132
I0
atp2133
a(((lp2134
tp2135
(lp2136
tp2137
a(((lp2138
I0
aI13
aI5
aI15
atp2139
(lp2140
I0
aI5
aI15
atp2141
a(((lp2142
I14
aI0
aI15
aI7
aI12
atp2143
(lp2144
I0
aI15
atp2145
a(((lp2146
I13
aI25
atp2147
(lp2148
I25
atp2149
a(((lp2150
I10
aI11
aI15
aI9
aI15
aI0
atp2151
(lp2152
I10
aI15
aI15
aI0
atp2153
asbag2
(g3
g4
Ntp2154
Rp2155
(dp2156
g8
I00
sg9
Nsg10
g2
(g11
g4
Ntp2157
Rp2158
(dp2159
g15
g16
sg17
(lp2160
g2
(g11
g4
Ntp2161
Rp2162
(dp2163
g15
g22
sg17
(lp2164
g25
asbag25
asbsg15
Vkth-largest with k=2
p2165
sg34
(lp2166
(((lp2167
I14
aI10
aI4
atp2168
I10
tp2169
a(((lp2170
I10
aI14
aI7
aI4
aI4
aI6
aI7
atp2171
I10
tp2172
a(((lp2173
I12
aI8
atp2174
I8
tp2175
a(((lp2176
I10
aI6
aI1
aI4
aI8
aI4
atp2177
I8
tp2178
a(((lp2179
I1
aI1
aI10
aI3
aI0
atp2180
I3
tp2181
a(((lp2182
I4
aI10
aI0
atp2183
I4
tp2184
a(((lp2185
I3
aI3
aI16
atp2186
I3
tp2187
a(((lp2188
I16
aI14
atp2189
I14
tp2190
a(((lp2191
I5
aI11
aI14
aI3
atp2192
I11
tp2193
a(((lp2194
I0
aI1
aI8
aI15
aI15
aI14
aI3
aI13
aI3
atp2195
I15
tp2196
asbag2
(g3
g4
Ntp2197
Rp2198
(dp2199
g8
I00
sg9
Nsg10
g2
(g11
g4
Ntp2200
Rp2201
(dp2202
g15
g16
sg17
(lp2203
g2
(g11
g4
Ntp2204
Rp2205
(dp2206
g15
g22
sg17
(lp2207
g25
asbag25
asbsg15
Vkth-largest with k=3
p2208
sg34
(lp2209
(((lp2210
I1
aI7
aI6
aI0
aI15
aI12
aI5
aI7
atp2211
I7
tp2212
a(((lp2213
I0
aI11
aI15
aI9
aI16
aI8
aI14
aI11
atp2214
I14
tp2215
a(((lp2216
I7
aI5
aI14
aI8
aI2
aI14
aI6
aI11
aI4
aI8
atp2217
I11
tp2218
a(((lp2219
I14
aI14
aI13
aI2
aI4
aI6
aI11
atp2220
I13
tp2221
a(((lp2222
I14
aI8
aI0
atp2223
I0
tp2224
a(((lp2225
I16
aI11
aI11
aI16
atp2226
I11
tp2227
a(((lp2228
I3
aI16
aI15
aI12
aI3
aI3
aI14
aI9
atp2229
I14
tp2230
a(((lp2231
I3
aI11
aI7
aI0
aI11
aI5
aI16
aI14
atp2232
I11
tp2233
a(((lp2234
I11
aI8
aI9
aI10
aI7
aI16
aI2
atp2235
I10
tp2236
a(((lp2237
I8
aI13
aI13
aI4
aI15
aI6
aI6
aI16
aI4
atp2238
I13
tp2239
asbag2
(g3
g4
Ntp2240
Rp2241
(dp2242
g8
I00
sg9
Nsg10
g2
(g11
g4
Ntp2243
Rp2244
(dp2245
g15
g16
sg17
(lp2246
g2
(g11
g4
Ntp2247
Rp2248
(dp2249
g15
g22
sg17
(lp2250
g25
asbag25
asbsg15
Vkth-smallest with k=2
p2251
sg34
(lp2252
(((lp2253
I2
aI6
aI12
aI0
aI11
aI14
aI0
aI3
aI12
atp2254
I0
tp2255
a(((lp2256
I3
aI10
aI15
aI16
aI4
aI12
aI5
atp2257
I4
tp2258
a(((lp2259
I8
aI12
aI0
aI16
aI13
atp2260
I8
tp2261
a(((lp2262
I15
aI15
aI14
aI9
aI0
aI10
aI13
aI10
atp2263
I9
tp2264
a(((lp2265
I4
aI6
aI11
aI12
atp2266
I6
tp2267
a(((lp2268
I14
aI14
atp2269
I14
tp2270
a(((lp2271
I6
aI8
atp2272
I8
tp2273
a(((lp2274
I14
aI1
aI11
aI6
aI2
aI9
aI7
atp2275
I2
tp2276
a(((lp2277
I16
aI16
aI8
aI4
aI4
aI12
aI3
aI7
aI9
atp2278
I4
tp2279
a(((lp2280
I4
aI1
aI10
aI15
aI3
aI5
aI15
aI0
aI15
atp2281
I1
tp2282
asbag2
(g3
g4
Ntp2283
Rp2284
(dp2285
g8
I00
sg9
Nsg10
g2
(g11
g4
Ntp2286
Rp2287
(dp2288
g15
g16
sg17
(lp2289
g2
(g11
g4
Ntp2290
Rp2291
(dp2292
g15
g22
sg17
(lp2293
g25
asbag25
asbsg15
Vkth-smallest with k=3
p2294
sg34
(lp2295
(((lp2296
I6
aI15
aI0
aI9
aI2
aI4
aI0
aI6
aI7
atp2297
I2
tp2298
a(((lp2299
I16
aI16
aI6
aI4
aI5
aI2
aI7
aI4
aI2
aI14
atp2300
I4
tp2301
a(((lp2302
I15
aI16
aI6
aI11
aI0
aI14
atp2303
I11
tp2304
a(((lp2305
I6
aI6
aI14
aI14
atp2306
I14
tp2307
a(((lp2308
I8
aI12
aI1
aI7
aI1
aI16
aI4
aI15
aI1
aI3
atp2309
I1
tp2310
a(((lp2311
I12
aI2
aI3
aI15
aI7
atp2312
I7
tp2313
a(((lp2314
I14
aI4
aI15
atp2315
I15
tp2316
a(((lp2317
I2
aI10
aI10
aI6
aI1
aI14
aI10
aI8
aI14
aI7
atp2318
I6
tp2319
a(((lp2320
I8
aI16
aI2
aI14
aI11
aI10
atp2321
I10
tp2322
a(((lp2323
I11
aI9
aI0
aI14
aI12
aI2
aI7
aI9
aI11
atp2324
I7
tp2325
asbag2
(g3
g4
Ntp2326
Rp2327
(dp2328
g8
I00
sg9
Nsg10
g2
(g11
g4
Ntp2329
Rp2330
(dp2331
g15
g16
sg17
(lp2332
g2
(g11
g4
Ntp2333
Rp2334
(dp2335
g15
g22
sg17
(lp2336
g25
asbag25
asbsg15
Vlast
p2337
sg34
(lp2338
(((lp2339
I1
aI2
aI3
atp2340
I3
tp2341
a(((lp2342
I0
atp2343
I0
tp2344
a(((lp2345
I1
aI1
aI2
aI1
atp2346
I1
tp2347
asbag2
(g3
g4
Ntp2348
Rp2349
(dp2350
g8
I00
sg9
Nsg10
g2
(g11
g4
Ntp2351
Rp2352
(dp2353
g15
g16
sg17
(lp2354
g2
(g11
g4
Ntp2355
Rp2356
(dp2357
g15
g22
sg17
(lp2358
g25
asbag25
asbsg15
Vlen
p2359
sg34
(lp2360
(((lp2361
I1
aI2
aI3
atp2362
I3
tp2363
a(((lp2364
I0
atp2365
I1
tp2366
a(((lp2367
I1
aI1
aI2
aI1
atp2368
I4
tp2369
a(((lp2370
tp2371
I0
tp2372
a(((lp2373
tp2374
I0
tp2375
a(((lp2376
I12
aI11
atp2377
I2
tp2378
a(((lp2379
I16
aI13
aI16
aI13
aI5
aI6
atp2380
I6
tp2381
a(((lp2382
I10
aI14
aI7
aI15
aI5
aI10
atp2383
I6
tp2384
a(((lp2385
I15
aI8
aI11
aI10
atp2386
I4
tp2387
a(((lp2388
tp2389
I0
tp2390
asbag2
(g3
g4
Ntp2391
Rp2392
(dp2393
g8
I00
sg9
Nsg10
g2
(g11
g4
Ntp2394
Rp2395
(dp2396
g15
g16
sg17
(lp2397
g2
(g11
g4
Ntp2398
Rp2399
(dp2400
g15
g22
sg17
(lp2401
g25
asbag25
asbsg15
Vmax
p2402
sg34
(lp2403
(((lp2404
I1
aI2
aI3
atp2405
I3
tp2406
a(((lp2407
I0
atp2408
I0
tp2409
a(((lp2410
I1
aI1
aI2
aI1
atp2411
I2
tp2412
asbag2
(g3
g4
Ntp2413
Rp2414
(dp2415
g8
I00
sg9
Nsg10
g2
(g11
g4
Ntp2416
Rp2417
(dp2418
g15
g16
sg17
(lp2419
g2
(g11
g4
Ntp2420
Rp2421
(dp2422
g15
g22
sg17
(lp2423
g25
asbag25
asbsg15
Vmin
p2424
sg34
(lp2425
(((lp2426
I1
aI2
aI3
atp2427
I1
tp2428
a(((lp2429
I0
atp2430
I0
tp2431
a(((lp2432
I1
aI1
aI2
aI1
atp2433
I1
tp2434
a(((lp2435
I2
atp2436
I2
tp2437
a(((lp2438
I9
aI14
aI16
aI11
aI3
aI16
aI4
atp2439
I3
tp2440
a(((lp2441
I1
aI6
aI3
aI12
atp2442
I1
tp2443
a(((lp2444
I9
aI8
aI4
aI5
atp2445
I4
tp2446
a(((lp2447
I5
aI6
aI12
aI2
aI7
aI1
aI4
atp2448
I1
tp2449
a(((lp2450
I1
aI4
aI15
aI6
aI4
atp2451
I1
tp2452
a(((lp2453
I15
aI15
aI1
aI4
aI3
atp2454
I1
tp2455
asbag2
(g3
g4
Ntp2456
Rp2457
(dp2458
g8
I00
sg9
Nsg10
g2
(g11
g4
Ntp2459
Rp2460
(dp2461
g15
g16
sg17
(lp2462
g2
(g11
g4
Ntp2463
Rp2464
(dp2465
g15
g22
sg17
(lp2466
g25
asbag2
(g11
g4
Ntp2467
Rp2468
(dp2469
g15
g22
sg17
(lp2470
g25
asbasbsg15
Vmodulo-k with k=2
p2471
sg34
(lp2472
(((lp2473
I0
aI10
aI2
aI3
aI5
atp2474
(lp2475
I0
aI0
aI0
aI1
aI1
atp2476
a(((lp2477
I5
aI12
aI6
aI14
atp2478
(lp2479
I1
aI0
aI0
aI0
atp2480
a(((lp2481
I7
aI0
aI16
aI10
aI15
aI14
aI1
atp2482
(lp2483
I1
aI0
aI0
aI0
aI1
aI0
aI1
atp2484
a(((lp2485
I16
aI1
aI4
aI10
aI2
atp2486
(lp2487
I0
aI1
aI0
aI0
aI0
atp2488
a(((lp2489
I8
aI1
aI13
aI13
atp2490
(lp2491
I0
aI1
aI1
aI1
atp2492
a(((lp2493
I14
aI7
aI11
aI5
atp2494
(lp2495
I0
aI1
aI1
aI1
atp2496
a(((lp2497
I16
aI12
aI13
aI9
aI4
aI4
aI6
atp2498
(lp2499
I0
aI0
aI1
aI1
aI0
aI0
aI0
atp2500
a(((lp2501
I13
atp2502
(lp2503
I1
atp2504
a(((lp2505
I8
aI5
aI4
aI0
aI3
atp2506
(lp2507
I0
aI1
aI0
aI0
aI1
atp2508
a(((lp2509
I6
aI8
aI16
aI1
aI3
aI14
atp2510
(lp2511
I0
aI0
aI0
aI1
aI1
aI0
atp2512
asbag2
(g3
g4
Ntp2513
Rp2514
(dp2515
g8
I00
sg9
Nsg10
g2
(g11
g4
Ntp2516
Rp2517
(dp2518
g15
g16
sg17
(lp2519
g2
(g11
g4
Ntp2520
Rp2521
(dp2522
g15
g22
sg17
(lp2523
g25
asbag2
(g11
g4
Ntp2524
Rp2525
(dp2526
g15
g22
sg17
(lp2527
g25
asbasbsg15
Vmodulo-k with k=3
p2528
sg34
(lp2529
(((lp2530
I13
aI16
aI12
aI0
aI16
atp2531
(lp2532
I1
aI1
aI0
aI0
aI1
atp2533
a(((lp2534
I14
aI2
aI4
aI4
aI6
aI15
aI13
atp2535
(lp2536
I2
aI2
aI1
aI1
aI0
aI0
aI1
atp2537
a(((lp2538
I2
atp2539
(lp2540
I2
atp2541
a(((lp2542
I8
atp2543
(lp2544
I2
atp2545
a(((lp2546
I4
aI12
aI16
aI1
atp2547
(lp2548
I1
aI0
aI1
aI1
atp2549
a(((lp2550
I9
atp2551
(lp2552
I0
atp2553
a(((lp2554
I5
aI16
aI11
aI6
aI1
atp2555
(lp2556
I2
aI1
aI2
aI0
aI1
atp2557
a(((lp2558
I15
aI8
aI16
aI0
aI0
aI10
atp2559
(lp2560
I0
aI2
aI1
aI0
aI0
aI1
atp2561
a(((lp2562
I12
aI5
aI1
atp2563
(lp2564
I0
aI2
aI1
atp2565
a(((lp2566
I0
aI14
aI7
aI9
aI2
aI9
aI12
atp2567
(lp2568
I0
aI2
aI1
aI0
aI2
aI0
aI0
atp2569
asbag2
(g3
g4
Ntp2570
Rp2571
(dp2572
g8
I00
sg9
Nsg10
g2
(g11
g4
Ntp2573
Rp2574
(dp2575
g15
g16
sg17
(lp2576
g2
(g11
g4
Ntp2577
Rp2578
(dp2579
g15
g22
sg17
(lp2580
g25
asbag2
(g11
g4
Ntp2581
Rp2582
(dp2583
g15
g22
sg17
(lp2584
g25
asbasbsg15
Vmodulo-k with k=5
p2585
sg34
(lp2586
(((lp2587
I15
aI2
aI13
aI11
aI15
aI11
atp2588
(lp2589
I0
aI2
aI3
aI1
aI0
aI1
atp2590
a(((lp2591
I16
aI13
aI15
aI14
aI2
aI9
aI14
atp2592
(lp2593
I1
aI3
aI0
aI4
aI2
aI4
aI4
atp2594
a(((lp2595
I1
aI9
aI0
aI8
aI13
aI7
atp2596
(lp2597
I1
aI4
aI0
aI3
aI3
aI2
atp2598
a(((lp2599
I16
aI13
aI2
atp2600
(lp2601
I1
aI3
aI2
atp2602
a(((lp2603
I4
aI2
aI12
aI8
aI16
atp2604
(lp2605
I4
aI2
aI2
aI3
aI1
atp2606
a(((lp2607
I14
aI3
atp2608
(lp2609
I4
aI3
atp2610
a(((lp2611
I3
aI2
aI3
aI9
aI9
aI0
aI7
atp2612
(lp2613
I3
aI2
aI3
aI4
aI4
aI0
aI2
atp2614
a(((lp2615
I9
aI7
aI2
aI14
aI15
atp2616
(lp2617
I4
aI2
aI2
aI4
aI0
atp2618
a(((lp2619
I7
aI14
atp2620
(lp2621
I2
aI4
atp2622
a(((lp2623
I16
aI10
aI6
aI3
aI16
atp2624
(lp2625
I1
aI0
aI1
aI3
aI1
atp2626
asbag2
(g3
g4
Ntp2627
Rp2628
(dp2629
g8
I00
sg9
Nsg10
g2
(g11
g4
Ntp2630
Rp2631
(dp2632
g15
g16
sg17
(lp2633
g2
(g11
g4
Ntp2634
Rp2635
(dp2636
g15
g22
sg17
(lp2637
g25
asbag2
(g11
g4
Ntp2638
Rp2639
(dp2640
g15
g22
sg17
(lp2641
g25
asbasbsg15
Vmult-k with k=2
p2642
sg34
(lp2643
(((lp2644
I13
aI13
aI14
atp2645
(lp2646
I26
aI26
aI28
atp2647
a(((lp2648
I13
aI4
atp2649
(lp2650
I26
aI8
atp2651
a(((lp2652
I5
aI2
aI2
aI16
aI10
aI13
atp2653
(lp2654
I10
aI4
aI4
aI32
aI20
aI26
atp2655
a(((lp2656
I16
atp2657
(lp2658
I32
atp2659
a(((lp2660
I8
aI3
aI7
atp2661
(lp2662
I16
aI6
aI14
atp2663
a(((lp2664
I16
aI10
aI7
aI8
atp2665
(lp2666
I32
aI20
aI14
aI16
atp2667
a(((lp2668
I9
aI1
aI2
aI6
atp2669
(lp2670
I18
aI2
aI4
aI12
atp2671
a(((lp2672
I9
aI11
aI16
atp2673
(lp2674
I18
aI22
aI32
atp2675
a(((lp2676
I3
aI9
aI8
aI2
aI16
aI8
aI9
atp2677
(lp2678
I6
aI18
aI16
aI4
aI32
aI16
aI18
atp2679
a(((lp2680
tp2681
(lp2682
tp2683
asbag2
(g3
g4
Ntp2684
Rp2685
(dp2686
g8
I00
sg9
Nsg10
g2
(g11
g4
Ntp2687
Rp2688
(dp2689
g15
g16
sg17
(lp2690
g2
(g11
g4
Ntp2691
Rp2692
(dp2693
g15
g22
sg17
(lp2694
g25
asbag2
(g11
g4
Ntp2695
Rp2696
(dp2697
g15
g22
sg17
(lp2698
g25
asbasbsg15
Vmult-k with k=3
p2699
sg34
(lp2700
(((lp2701
I3
aI14
aI4
atp2702
(lp2703
I9
aI42
aI12
atp2704
a(((lp2705
I10
aI9
aI0
aI16
aI2
atp2706
(lp2707
I30
aI27
aI0
aI48
aI6
atp2708
a(((lp2709
I4
aI7
atp2710
(lp2711
I12
aI21
atp2712
a(((lp2713
I3
aI0
aI12
atp2714
(lp2715
I9
aI0
aI36
atp2716
a(((lp2717
I12
aI13
atp2718
(lp2719
I36
aI39
atp2720
a(((lp2721
I2
aI13
aI7
atp2722
(lp2723
I6
aI39
aI21
atp2724
a(((lp2725
I13
aI12
aI8
aI10
aI10
aI10
atp2726
(lp2727
I39
aI36
aI24
aI30
aI30
aI30
atp2728
a(((lp2729
I15
aI7
aI16
aI13
aI11
aI2
aI4
atp2730
(lp2731
I45
aI21
aI48
aI39
aI33
aI6
aI12
atp2732
a(((lp2733
tp2734
(lp2735
tp2736
a(((lp2737
I7
aI12
aI13
aI5
aI2
aI15
atp2738
(lp2739
I21
aI36
aI39
aI15
aI6
aI45
atp2740
asbag2
(g3
g4
Ntp2741
Rp2742
(dp2743
g8
I00
sg9
Nsg10
g2
(g11
g4
Ntp2744
Rp2745
(dp2746
g15
g16
sg17
(lp2747
g2
(g11
g4
Ntp2748
Rp2749
(dp2750
g15
g22
sg17
(lp2751
g25
asbag2
(g11
g4
Ntp2752
Rp2753
(dp2754
g15
g22
sg17
(lp2755
g25
asbasbsg15
Vmult-k with k=-2
p2756
sg34
(lp2757
(((lp2758
I14
aI10
atp2759
(lp2760
I-28
aI-20
atp2761
a(((lp2762
I3
atp2763
(lp2764
I-6
atp2765
a(((lp2766
I16
aI9
aI7
aI4
aI16
atp2767
(lp2768
I-32
aI-18
aI-14
aI-8
aI-32
atp2769
a(((lp2770
I12
aI2
aI14
aI12
aI4
atp2771
(lp2772
I-24
aI-4
aI-28
aI-24
aI-8
atp2773
a(((lp2774
I3
aI2
aI14
atp2775
(lp2776
I-6
aI-4
aI-28
atp2777
a(((lp2778
I6
aI9
atp2779
(lp2780
I-12
aI-18
atp2781
a(((lp2782
I15
atp2783
(lp2784
I-30
atp2785
a(((lp2786
I11
atp2787
(lp2788
I-22
atp2789
a(((lp2790
tp2791
(lp2792
tp2793
a(((lp2794
I9
aI15
aI13
aI6
atp2795
(lp2796
I-18
aI-30
aI-26
aI-12
atp2797
asbag2
(g3
g4
Ntp2798
Rp2799
(dp2800
g8
I00
sg9
Nsg10
g2
(g11
g4
Ntp2801
Rp2802
(dp2803
g15
g16
sg17
(lp2804
g2
(g11
g4
Ntp2805
Rp2806
(dp2807
g15
g22
sg17
(lp2808
g25
asbag2
(g11
g4
Ntp2809
Rp2810
(dp2811
g15
g22
sg17
(lp2812
g25
asbasbsg15
Vmult-k with k=8
p2813
sg34
(lp2814
(((lp2815
I13
aI0
atp2816
(lp2817
I104
aI0
atp2818
a(((lp2819
I15
aI15
aI8
aI4
aI0
aI7
aI15
atp2820
(lp2821
I120
aI120
aI64
aI32
aI0
aI56
aI120
atp2822
a(((lp2823
I2
aI4
aI9
aI7
aI8
aI11
atp2824
(lp2825
I16
aI32
aI72
aI56
aI64
aI88
atp2826
a(((lp2827
I3
aI6
aI9
aI13
aI16
aI11
aI14
atp2828
(lp2829
I24
aI48
aI72
aI104
aI128
aI88
aI112
atp2830
a(((lp2831
I2
aI6
aI2
aI0
atp2832
(lp2833
I16
aI48
aI16
aI0
atp2834
a(((lp2835
I13
aI11
aI5
aI9
aI7
aI6
aI13
atp2836
(lp2837
I104
aI88
aI40
aI72
aI56
aI48
aI104
atp2838
a(((lp2839
I5
aI5
aI3
aI4
atp2840
(lp2841
I40
aI40
aI24
aI32
atp2842
a(((lp2843
I1
aI8
aI6
aI5
atp2844
(lp2845
I8
aI64
aI48
aI40
atp2846
a(((lp2847
tp2848
(lp2849
tp2850
a(((lp2851
tp2852
(lp2853
tp2854
asbag2
(g3
g4
Ntp2855
Rp2856
(dp2857
g8
I00
sg9
Nsg10
g2
(g11
g4
Ntp2858
Rp2859
(dp2860
g15
g16
sg17
(lp2861
g2
(g11
g4
Ntp2862
Rp2863
(dp2864
g15
g22
sg17
(lp2865
g25
asbag2
(g11
g4
Ntp2866
Rp2867
(dp2868
g15
g22
sg17
(lp2869
g25
asbasbsg15
Vodds
p2870
sg34
(lp2871
(((lp2872
I1
aI1
aI3
atp2873
(lp2874
I1
aI1
aI3
atp2875
a(((lp2876
I2
aI5
aI4
aI2
aI0
aI5
aI1
aI1
atp2877
(lp2878
I5
aI5
aI1
aI1
atp2879
asbag2
(g3
g4
Ntp2880
Rp2881
(dp2882
g8
I00
sg9
Nsg10
g2
(g11
g4
Ntp2883
Rp2884
(dp2885
g15
g16
sg17
(lp2886
g2
(g11
g4
Ntp2887
Rp2888
(dp2889
g15
g22
sg17
(lp2890
g25
asbag2
(g11
g4
Ntp2891
Rp2892
(dp2893
g15
g22
sg17
(lp2894
g25
asbasbsg15
Vpop
p2895
sg34
(lp2896
(((lp2897
I1
aI2
aI3
atp2898
(lp2899
I1
aI2
atp2900
a(((lp2901
I0
atp2902
(lp2903
tp2904
a(((lp2905
I1
aI1
aI2
aI1
atp2906
(lp2907
I1
aI1
aI2
atp2908
a(((lp2909
I13
aI1
atp2910
(lp2911
I13
atp2912
a(((lp2913
I3
aI7
aI14
aI11
aI10
aI10
aI15
atp2914
(lp2915
I3
aI7
aI14
aI11
aI10
aI10
atp2916
a(((lp2917
I2
aI2
aI9
atp2918
(lp2919
I2
aI2
atp2920
a(((lp2921
I1
aI13
aI12
aI14
aI11
aI7
atp2922
(lp2923
I1
aI13
aI12
aI14
aI11
atp2924
a(((lp2925
I5
aI13
aI10
aI3
aI9
aI14
aI10
atp2926
(lp2927
I5
aI13
aI10
aI3
aI9
aI14
atp2928
a(((lp2929
I7
aI12
aI2
aI9
aI8
aI9
atp2930
(lp2931
I7
aI12
aI2
aI9
aI8
atp2932
a(((lp2933
I15
aI15
aI10
aI1
aI1
aI0
atp2934
(lp2935
I15
aI15
aI10
aI1
aI1
atp2936
asbag2
(g3
g4
Ntp2937
Rp2938
(dp2939
g8
I00
sg9
Nsg10
g2
(g11
g4
Ntp2940
Rp2941
(dp2942
g15
g16
sg17
(lp2943
g2
(g11
g4
Ntp2944
Rp2945
(dp2946
g15
g22
sg17
(lp2947
g25
asbag2
(g11
g4
Ntp2948
Rp2949
(dp2950
g15
g22
sg17
(lp2951
g25
asbasbsg15
Vprepend-k with k=2
p2952
sg34
(lp2953
(((lp2954
I6
atp2955
(lp2956
I2
aI6
atp2957
a(((lp2958
I12
aI13
aI7
atp2959
(lp2960
I2
aI12
aI13
aI7
atp2961
a(((lp2962
I1
atp2963
(lp2964
I2
aI1
atp2965
a(((lp2966
tp2967
(lp2968
I2
atp2969
a(((lp2970
I9
aI3
aI7
atp2971
(lp2972
I2
aI9
aI3
aI7
atp2973
a(((lp2974
I16
aI3
aI1
atp2975
(lp2976
I2
aI16
aI3
aI1
atp2977
a(((lp2978
I0
aI0
aI8
aI1
aI16
aI13
atp2979
(lp2980
I2
aI0
aI0
aI8
aI1
aI16
aI13
atp2981
a(((lp2982
I15
aI8
aI5
aI6
aI5
atp2983
(lp2984
I2
aI15
aI8
aI5
aI6
aI5
atp2985
a(((lp2986
I7
atp2987
(lp2988
I2
aI7
atp2989
a(((lp2990
I13
aI11
aI12
aI13
aI10
aI10
atp2991
(lp2992
I2
aI13
aI11
aI12
aI13
aI10
aI10
atp2993
asbag2
(g3
g4
Ntp2994
Rp2995
(dp2996
g8
I00
sg9
Nsg10
g2
(g11
g4
Ntp2997
Rp2998
(dp2999
g15
g16
sg17
(lp3000
g2
(g11
g4
Ntp3001
Rp3002
(dp3003
g15
g22
sg17
(lp3004
g25
asbag2
(g11
g4
Ntp3005
Rp3006
(dp3007
g15
g22
sg17
(lp3008
g25
asbasbsg15
Vprepend-k with k=3
p3009
sg34
(lp3010
(((lp3011
I2
aI4
aI6
aI7
aI5
aI14
atp3012
(lp3013
I3
aI2
aI4
aI6
aI7
aI5
aI14
atp3014
a(((lp3015
I10
aI5
aI10
aI11
aI2
atp3016
(lp3017
I3
aI10
aI5
aI10
aI11
aI2
atp3018
a(((lp3019
I0
atp3020
(lp3021
I3
aI0
atp3022
a(((lp3023
I10
aI1
aI16
aI13
aI1
aI2
atp3024
(lp3025
I3
aI10
aI1
aI16
aI13
aI1
aI2
atp3026
a(((lp3027
I1
aI4
aI13
aI5
aI11
atp3028
(lp3029
I3
aI1
aI4
aI13
aI5
aI11
atp3030
a(((lp3031
I14
atp3032
(lp3033
I3
aI14
atp3034
a(((lp3035
I1
aI4
atp3036
(lp3037
I3
aI1
aI4
atp3038
a(((lp3039
I0
aI10
aI4
aI15
atp3040
(lp3041
I3
aI0
aI10
aI4
aI15
atp3042
a(((lp3043
I0
aI15
aI0
atp3044
(lp3045
I3
aI0
aI15
aI0
atp3046
a(((lp3047
I15
aI5
aI7
aI3
aI6
aI9
atp3048
(lp3049
I3
aI15
aI5
aI7
aI3
aI6
aI9
atp3050
asbag2
(g3
g4
Ntp3051
Rp3052
(dp3053
g8
I00
sg9
Nsg10
g2
(g11
g4
Ntp3054
Rp3055
(dp3056
g15
g16
sg17
(lp3057
g2
(g11
g4
Ntp3058
Rp3059
(dp3060
g15
g22
sg17
(lp3061
g25
asbag2
(g11
g4
Ntp3062
Rp3063
(dp3064
g15
g22
sg17
(lp3065
g25
asbasbsg15
Vprepend-k with k=-2
p3066
sg34
(lp3067
(((lp3068
tp3069
(lp3070
I-2
atp3071
a(((lp3072
I7
aI14
aI2
aI5
aI13
aI11
aI14
atp3073
(lp3074
I-2
aI7
aI14
aI2
aI5
aI13
aI11
aI14
atp3075
a(((lp3076
I15
aI1
aI7
aI8
atp3077
(lp3078
I-2
aI15
aI1
aI7
aI8
atp3079
a(((lp3080
I16
aI16
aI1
aI6
aI5
aI6
atp3081
(lp3082
I-2
aI16
aI16
aI1
aI6
aI5
aI6
atp3083
a(((lp3084
I11
atp3085
(lp3086
I-2
aI11
atp3087
a(((lp3088
I16
aI3
aI10
aI2
aI8
aI6
atp3089
(lp3090
I-2
aI16
aI3
aI10
aI2
aI8
aI6
atp3091
a(((lp3092
I5
aI1
aI14
aI10
atp3093
(lp3094
I-2
aI5
aI1
aI14
aI10
atp3095
a(((lp3096
I1
aI1
aI7
aI6
aI15
aI15
aI7
atp3097
(lp3098
I-2
aI1
aI1
aI7
aI6
aI15
aI15
aI7
atp3099
a(((lp3100
I14
aI2
aI4
aI5
atp3101
(lp3102
I-2
aI14
aI2
aI4
aI5
atp3103
a(((lp3104
I9
aI7
aI7
aI2
aI6
atp3105
(lp3106
I-2
aI9
aI7
aI7
aI2
aI6
atp3107
asbag2
(g3
g4
Ntp3108
Rp3109
(dp3110
g8
I00
sg9
Nsg10
g2
(g11
g4
Ntp3111
Rp3112
(dp3113
g15
g16
sg17
(lp3114
g2
(g11
g4
Ntp3115
Rp3116
(dp3117
g15
g22
sg17
(lp3118
g25
asbag2
(g11
g4
Ntp3119
Rp3120
(dp3121
g15
g22
sg17
(lp3122
g25
asbasbsg15
Vprepend-k with k=7
p3123
sg34
(lp3124
(((lp3125
I8
aI13
aI12
atp3126
(lp3127
I7
aI8
aI13
aI12
atp3128
a(((lp3129
I15
aI13
aI9
aI16
atp3130
(lp3131
I7
aI15
aI13
aI9
aI16
atp3132
a(((lp3133
I8
aI12
atp3134
(lp3135
I7
aI8
aI12
atp3136
a(((lp3137
I8
atp3138
(lp3139
I7
aI8
atp3140
a(((lp3141
I0
aI16
aI14
aI2
aI2
atp3142
(lp3143
I7
aI0
aI16
aI14
aI2
aI2
atp3144
a(((lp3145
I7
aI12
aI5
atp3146
(lp3147
I7
aI7
aI12
aI5
atp3148
a(((lp3149
I4
aI8
aI2
aI2
aI6
aI8
atp3150
(lp3151
I7
aI4
aI8
aI2
aI2
aI6
aI8
atp3152
a(((lp3153
I9
atp3154
(lp3155
I7
aI9
atp3156
a(((lp3157
tp3158
(lp3159
I7
atp3160
a(((lp3161
I16
aI7
aI12
aI7
aI11
atp3162
(lp3163
I7
aI16
aI7
aI12
aI7
aI11
atp3164
asbag2
(g3
g4
Ntp3165
Rp3166
(dp3167
g8
I00
sg9
Nsg10
g2
(g11
g4
Ntp3168
Rp3169
(dp3170
g15
g16
sg17
(lp3171
g2
(g11
g4
Ntp3172
Rp3173
(dp3174
g15
g22
sg17
(lp3175
g25
asbag25
asbsg15
Vproduct
p3176
sg34
(lp3177
(((lp3178
I1
aI2
aI3
atp3179
I6
tp3180
a(((lp3181
I0
atp3182
I0
tp3183
a(((lp3184
I1
aI1
aI2
aI1
atp3185
I2
tp3186
asbag2
(g3
g4
Ntp3187
Rp3188
(dp3189
g8
I00
sg9
Nsg10
g2
(g11
g4
Ntp3190
Rp3191
(dp3192
g15
g16
sg17
(lp3193
g2
(g11
g4
Ntp3194
Rp3195
(dp3196
g15
g22
sg17
(lp3197
g25
asbag2
(g11
g4
Ntp3198
Rp3199
(dp3200
g15
g22
sg17
(lp3201
g25
asbasbsg15
Vremove-index-k with k=2
p3202
sg34
(lp3203
(((lp3204
I12
aI16
aI1
aI15
atp3205
(lp3206
I12
aI1
aI15
atp3207
a(((lp3208
I0
aI6
aI3
aI5
aI0
aI14
aI3
atp3209
(lp3210
I0
aI3
aI5
aI0
aI14
aI3
atp3211
a(((lp3212
I1
aI5
aI9
atp3213
(lp3214
I1
aI9
atp3215
a(((lp3216
I4
aI6
aI10
aI1
aI1
aI7
aI1
aI8
atp3217
(lp3218
I4
aI10
aI1
aI1
aI7
aI1
aI8
atp3219
a(((lp3220
I14
aI10
aI1
aI3
atp3221
(lp3222
I14
aI1
aI3
atp3223
a(((lp3224
I8
aI3
aI2
atp3225
(lp3226
I8
aI2
atp3227
a(((lp3228
I0
aI11
aI16
aI2
aI7
aI5
atp3229
(lp3230
I0
aI16
aI2
aI7
aI5
atp3231
a(((lp3232
I10
aI11
aI0
aI9
aI9
aI4
aI3
atp3233
(lp3234
I10
aI0
aI9
aI9
aI4
aI3
atp3235
a(((lp3236
I0
aI6
aI14
aI7
aI16
aI2
aI4
aI0
atp3237
(lp3238
I0
aI14
aI7
aI16
aI2
aI4
aI0
atp3239
a(((lp3240
I3
aI1
aI6
aI15
aI6
atp3241
(lp3242
I3
aI6
aI15
aI6
atp3243
asbag2
(g3
g4
Ntp3244
Rp3245
(dp3246
g8
I00
sg9
Nsg10
g2
(g11
g4
Ntp3247
Rp3248
(dp3249
g15
g16
sg17
(lp3250
g2
(g11
g4
Ntp3251
Rp3252
(dp3253
g15
g22
sg17
(lp3254
g25
asbag2
(g11
g4
Ntp3255
Rp3256
(dp3257
g15
g22
sg17
(lp3258
g25
asbasbsg15
Vremove-index-k with k=3
p3259
sg34
(lp3260
(((lp3261
I0
aI13
aI9
atp3262
(lp3263
I0
aI13
atp3264
a(((lp3265
I6
aI15
aI4
atp3266
(lp3267
I6
aI15
atp3268
a(((lp3269
I3
aI11
aI10
aI14
aI15
aI2
aI6
aI2
aI2
aI12
atp3270
(lp3271
I3
aI11
aI14
aI15
aI2
aI6
aI2
aI2
aI12
atp3272
a(((lp3273
I14
aI4
aI8
atp3274
(lp3275
I14
aI4
atp3276
a(((lp3277
I15
aI6
aI5
atp3278
(lp3279
I15
aI6
atp3280
a(((lp3281
I13
aI9
aI12
aI7
aI13
aI10
aI6
aI0
aI5
atp3282
(lp3283
I13
aI9
aI7
aI13
aI10
aI6
aI0
aI5
atp3284
a(((lp3285
I0
aI9
aI11
aI4
aI2
atp3286
(lp3287
I0
aI9
aI4
aI2
atp3288
a(((lp3289
I3
aI13
aI4
aI4
aI9
aI16
aI10
aI12
aI4
aI10
atp3290
(lp3291
I3
aI13
aI4
aI9
aI16
aI10
aI12
aI4
aI10
atp3292
a(((lp3293
I7
aI11
aI14
aI3
aI12
aI13
aI16
atp3294
(lp3295
I7
aI11
aI3
aI12
aI13
aI16
atp3296
a(((lp3297
I12
aI14
aI16
aI3
aI0
aI14
aI3
aI1
aI4
atp3298
(lp3299
I12
aI14
aI3
aI0
aI14
aI3
aI1
aI4
atp3300
asbag2
(g3
g4
Ntp3301
Rp3302
(dp3303
g8
I00
sg9
Nsg10
g2
(g11
g4
Ntp3304
Rp3305
(dp3306
g15
g16
sg17
(lp3307
g2
(g11
g4
Ntp3308
Rp3309
(dp3310
g15
g22
sg17
(lp3311
g25
asbag2
(g11
g4
Ntp3312
Rp3313
(dp3314
g15
g22
sg17
(lp3315
g25
asbasbsg15
Vremove-mod-head
p3316
sg34
(lp3317
(((lp3318
I3
aI1
aI3
aI4
aI7
aI6
aI9
aI2
atp3319
(lp3320
I1
aI4
aI7
aI2
atp3321
a(((lp3322
I4
aI2
aI6
aI10
aI8
aI12
atp3323
(lp3324
I2
aI6
aI10
atp3325
a(((lp3326
I1
aI2
aI3
atp3327
(lp3328
tp3329
asbag2
(g3
g4
Ntp3330
Rp3331
(dp3332
g8
I00
sg9
Nsg10
g2
(g11
g4
Ntp3333
Rp3334
(dp3335
g15
g16
sg17
(lp3336
g2
(g11
g4
Ntp3337
Rp3338
(dp3339
g15
g22
sg17
(lp3340
g25
asbag2
(g11
g4
Ntp3341
Rp3342
(dp3343
g15
g22
sg17
(lp3344
g25
asbasbsg15
Vremove-mod-k with k=2
p3345
sg34
(lp3346
(((lp3347
I13
aI15
aI7
aI13
aI1
aI7
aI7
atp3348
(lp3349
I13
aI15
aI7
aI13
aI1
aI7
aI7
atp3350
a(((lp3351
I6
atp3352
(lp3353
tp3354
a(((lp3355
I15
aI1
aI16
aI10
atp3356
(lp3357
I15
aI1
atp3358
a(((lp3359
I4
aI12
aI7
aI15
aI12
aI6
atp3360
(lp3361
I7
aI15
atp3362
a(((lp3363
tp3364
(lp3365
tp3366
a(((lp3367
I3
aI1
aI7
aI0
aI8
atp3368
(lp3369
I3
aI1
aI7
atp3370
a(((lp3371
I5
aI13
aI3
aI14
atp3372
(lp3373
I5
aI13
aI3
atp3374
a(((lp3375
I2
aI13
aI11
aI14
aI14
aI7
aI3
atp3376
(lp3377
I13
aI11
aI7
aI3
atp3378
a(((lp3379
I9
atp3380
(lp3381
I9
atp3382
a(((lp3383
I12
aI14
aI11
aI15
atp3384
(lp3385
I11
aI15
atp3386
asbag2
(g3
g4
Ntp3387
Rp3388
(dp3389
g8
I00
sg9
Nsg10
g2
(g11
g4
Ntp3390
Rp3391
(dp3392
g15
g16
sg17
(lp3393
g2
(g11
g4
Ntp3394
Rp3395
(dp3396
g15
g22
sg17
(lp3397
g25
asbag2
(g11
g4
Ntp3398
Rp3399
(dp3400
g15
g22
sg17
(lp3401
g25
asbasbsg15
Vremove-mod-k with k=3
p3402
sg34
(lp3403
(((lp3404
I0
aI8
aI10
aI2
aI8
aI6
atp3405
(lp3406
I8
aI10
aI2
aI8
atp3407
a(((lp3408
I12
aI4
aI27
aI0
aI18
aI21
aI15
atp3409
(lp3410
I4
atp3411
a(((lp3412
I3
aI0
aI3
aI8
aI4
aI9
atp3413
(lp3414
I8
aI4
atp3415
a(((lp3416
I16
aI3
aI3
atp3417
(lp3418
I16
atp3419
a(((lp3420
I4
aI12
aI16
atp3421
(lp3422
I4
aI16
atp3423
a(((lp3424
I1
atp3425
(lp3426
I1
atp3427
a(((lp3428
I10
aI21
atp3429
(lp3430
I10
atp3431
a(((lp3432
I16
aI2
aI8
aI15
aI0
aI15
aI6
atp3433
(lp3434
I16
aI2
aI8
atp3435
a(((lp3436
I0
aI6
aI2
aI11
aI4
atp3437
(lp3438
I2
aI11
aI4
atp3439
a(((lp3440
I2
aI3
aI6
aI15
aI0
atp3441
(lp3442
I2
atp3443
asbag2
(g3
g4
Ntp3444
Rp3445
(dp3446
g8
I00
sg9
Nsg10
g2
(g11
g4
Ntp3447
Rp3448
(dp3449
g15
g16
sg17
(lp3450
g2
(g11
g4
Ntp3451
Rp3452
(dp3453
g15
g22
sg17
(lp3454
g25
asbag2
(g11
g4
Ntp3455
Rp3456
(dp3457
g15
g22
sg17
(lp3458
g25
asbasbsg15
Vremove-mod-k with k=5
p3459
sg34
(lp3460
(((lp3461
I5
aI35
aI40
aI7
aI25
aI0
atp3462
(lp3463
I7
atp3464
a(((lp3465
I6
aI5
aI0
atp3466
(lp3467
I6
atp3468
a(((lp3469
I8
aI9
atp3470
(lp3471
I8
aI9
atp3472
a(((lp3473
I12
atp3474
(lp3475
I12
atp3476
a(((lp3477
I0
aI45
aI20
aI10
atp3478
(lp3479
tp3480
a(((lp3481
I25
aI9
aI20
aI11
aI16
atp3482
(lp3483
I9
aI11
aI16
atp3484
a(((lp3485
I30
aI15
aI8
aI5
aI7
aI10
aI5
atp3486
(lp3487
I8
aI7
atp3488
a(((lp3489
I12
aI7
aI7
atp3490
(lp3491
I12
aI7
aI7
atp3492
a(((lp3493
I5
aI30
atp3494
(lp3495
tp3496
a(((lp3497
I7
aI16
aI0
atp3498
(lp3499
I7
aI16
atp3500
asbag2
(g3
g4
Ntp3501
Rp3502
(dp3503
g8
I00
sg9
Nsg10
g2
(g11
g4
Ntp3504
Rp3505
(dp3506
g15
g16
sg17
(lp3507
g2
(g11
g4
Ntp3508
Rp3509
(dp3510
g15
g22
sg17
(lp3511
g25
asbag2
(g11
g4
Ntp3512
Rp3513
(dp3514
g15
g22
sg17
(lp3515
g25
asbasbsg15
Vreplace-all-k-with-n with k=1 and n=2
p3516
sg34
(lp3517
(((lp3518
I1
aI10
atp3519
(lp3520
I2
aI10
atp3521
a(((lp3522
I9
atp3523
(lp3524
I9
atp3525
a(((lp3526
I1
aI0
aI1
aI14
aI3
atp3527
(lp3528
I2
aI0
aI2
aI14
aI3
atp3529
a(((lp3530
I1
aI13
aI8
atp3531
(lp3532
I2
aI13
aI8
atp3533
a(((lp3534
tp3535
(lp3536
tp3537
a(((lp3538
I1
aI14
aI1
atp3539
(lp3540
I2
aI14
aI2
atp3541
a(((lp3542
I6
aI3
aI11
atp3543
(lp3544
I6
aI3
aI11
atp3545
a(((lp3546
I1
aI2
aI1
aI9
aI1
aI2
aI1
atp3547
(lp3548
I2
aI2
aI2
aI9
aI2
aI2
aI2
atp3549
a(((lp3550
I3
aI1
aI1
atp3551
(lp3552
I3
aI2
aI2
atp3553
a(((lp3554
I1
aI1
aI1
aI1
aI1
aI14
atp3555
(lp3556
I2
aI2
aI2
aI2
aI2
aI14
atp3557
asbag2
(g3
g4
Ntp3558
Rp3559
(dp3560
g8
I00
sg9
Nsg10
g2
(g11
g4
Ntp3561
Rp3562
(dp3563
g15
g16
sg17
(lp3564
g2
(g11
g4
Ntp3565
Rp3566
(dp3567
g15
g22
sg17
(lp3568
g25
asbag2
(g11
g4
Ntp3569
Rp3570
(dp3571
g15
g22
sg17
(lp3572
g25
asbasbsg15
Vreplace-all-k-with-n with k=2 and n=4
p3573
sg34
(lp3574
(((lp3575
tp3576
(lp3577
tp3578
a(((lp3579
I4
aI1
aI1
aI3
aI14
aI5
atp3580
(lp3581
I4
aI1
aI1
aI3
aI14
aI5
atp3582
a(((lp3583
tp3584
(lp3585
tp3586
a(((lp3587
tp3588
(lp3589
tp3590
a(((lp3591
I2
aI3
aI12
aI1
aI3
atp3592
(lp3593
I4
aI3
aI12
aI1
aI3
atp3594
a(((lp3595
I8
aI0
aI2
aI2
aI1
atp3596
(lp3597
I8
aI0
aI4
aI4
aI1
atp3598
a(((lp3599
tp3600
(lp3601
tp3602
a(((lp3603
I2
aI2
aI2
atp3604
(lp3605
I4
aI4
aI4
atp3606
a(((lp3607
I2
aI2
atp3608
(lp3609
I4
aI4
atp3610
a(((lp3611
I5
aI15
aI13
atp3612
(lp3613
I5
aI15
aI13
atp3614
asbag2
(g3
g4
Ntp3615
Rp3616
(dp3617
g8
I00
sg9
Nsg10
g2
(g11
g4
Ntp3618
Rp3619
(dp3620
g15
g16
sg17
(lp3621
g2
(g11
g4
Ntp3622
Rp3623
(dp3624
g15
g22
sg17
(lp3625
g25
asbag2
(g11
g4
Ntp3626
Rp3627
(dp3628
g15
g22
sg17
(lp3629
g25
asbasbsg15
Vreplace-all-k-with-n with k=3 and n=-2
p3630
sg34
(lp3631
(((lp3632
I7
aI5
atp3633
(lp3634
I7
aI5
atp3635
a(((lp3636
I12
aI15
aI3
aI7
atp3637
(lp3638
I12
aI15
aI-2
aI7
atp3639
a(((lp3640
I10
aI9
aI0
aI6
aI16
aI13
atp3641
(lp3642
I10
aI9
aI0
aI6
aI16
aI13
atp3643
a(((lp3644
I10
aI3
atp3645
(lp3646
I10
aI-2
atp3647
a(((lp3648
I3
aI3
aI3
atp3649
(lp3650
I-2
aI-2
aI-2
atp3651
a(((lp3652
I0
aI12
aI7
aI3
atp3653
(lp3654
I0
aI12
aI7
aI-2
atp3655
a(((lp3656
I15
aI1
atp3657
(lp3658
I15
aI1
atp3659
a(((lp3660
I7
aI3
aI14
aI10
atp3661
(lp3662
I7
aI-2
aI14
aI10
atp3663
a(((lp3664
I3
aI3
aI3
aI2
aI3
aI3
aI3
atp3665
(lp3666
I-2
aI-2
aI-2
aI2
aI-2
aI-2
aI-2
atp3667
a(((lp3668
I3
aI10
aI6
aI1
atp3669
(lp3670
I-2
aI10
aI6
aI1
atp3671
asbag2
(g3
g4
Ntp3672
Rp3673
(dp3674
g8
I00
sg9
Nsg10
g2
(g11
g4
Ntp3675
Rp3676
(dp3677
g15
g16
sg17
(lp3678
g2
(g11
g4
Ntp3679
Rp3680
(dp3681
g15
g22
sg17
(lp3682
g25
asbag2
(g11
g4
Ntp3683
Rp3684
(dp3685
g15
g22
sg17
(lp3686
g25
asbasbsg15
Vreplace-all-k-with-n with k=5 and n=0
p3687
sg34
(lp3688
(((lp3689
I1
aI15
atp3690
(lp3691
I1
aI15
atp3692
a(((lp3693
I15
aI8
aI5
aI5
atp3694
(lp3695
I15
aI8
aI0
aI0
atp3696
a(((lp3697
tp3698
(lp3699
tp3700
a(((lp3701
tp3702
(lp3703
tp3704
a(((lp3705
tp3706
(lp3707
tp3708
a(((lp3709
I9
atp3710
(lp3711
I9
atp3712
a(((lp3713
I11
aI2
aI9
aI5
aI15
atp3714
(lp3715
I11
aI2
aI9
aI0
aI15
atp3716
a(((lp3717
I11
atp3718
(lp3719
I11
atp3720
a(((lp3721
I16
aI5
aI5
aI5
aI11
aI1
aI7
atp3722
(lp3723
I16
aI0
aI0
aI0
aI11
aI1
aI7
atp3724
a(((lp3725
I5
atp3726
(lp3727
I0
atp3728
asbag2
(g3
g4
Ntp3729
Rp3730
(dp3731
g8
I00
sg9
Nsg10
g2
(g11
g4
Ntp3732
Rp3733
(dp3734
g15
g16
sg17
(lp3735
g2
(g11
g4
Ntp3736
Rp3737
(dp3738
g15
g22
sg17
(lp3739
g25
asbag2
(g11
g4
Ntp3740
Rp3741
(dp3742
g15
g22
sg17
(lp3743
g25
asbasbsg15
Vreplace-all-with-index-k with k=1
p3744
sg34
(lp3745
(((lp3746
I9
aI12
aI4
aI3
atp3747
(lp3748
I9
aI9
aI9
aI9
atp3749
a(((lp3750
I5
aI7
aI8
atp3751
(lp3752
I5
aI5
aI5
atp3753
a(((lp3754
I9
aI6
aI12
aI2
aI11
atp3755
(lp3756
I9
aI9
aI9
aI9
aI9
atp3757
a(((lp3758
I0
aI2
aI1
aI2
aI2
aI7
atp3759
(lp3760
I0
aI0
aI0
aI0
aI0
aI0
atp3761
a(((lp3762
I12
aI11
atp3763
(lp3764
I12
aI12
atp3765
a(((lp3766
I3
aI7
aI10
aI0
aI13
aI13
atp3767
(lp3768
I3
aI3
aI3
aI3
aI3
aI3
atp3769
a(((lp3770
I3
aI14
aI16
aI7
atp3771
(lp3772
I3
aI3
aI3
aI3
atp3773
a(((lp3774
I3
aI0
aI9
aI4
aI5
atp3775
(lp3776
I3
aI3
aI3
aI3
aI3
atp3777
a(((lp3778
I1
aI12
aI10
aI7
aI9
atp3779
(lp3780
I1
aI1
aI1
aI1
aI1
atp3781
a(((lp3782
I12
aI13
aI1
aI16
aI8
aI11
aI14
atp3783
(lp3784
I12
aI12
aI12
aI12
aI12
aI12
aI12
atp3785
asbag2
(g3
g4
Ntp3786
Rp3787
(dp3788
g8
I00
sg9
Nsg10
g2
(g11
g4
Ntp3789
Rp3790
(dp3791
g15
g16
sg17
(lp3792
g2
(g11
g4
Ntp3793
Rp3794
(dp3795
g15
g22
sg17
(lp3796
g25
asbag2
(g11
g4
Ntp3797
Rp3798
(dp3799
g15
g22
sg17
(lp3800
g25
asbasbsg15
Vreplace-all-with-index-k with k=2
p3801
sg34
(lp3802
(((lp3803
I8
aI15
aI13
aI12
aI15
aI15
aI11
aI12
aI11
atp3804
(lp3805
I15
aI15
aI15
aI15
aI15
aI15
aI15
aI15
aI15
atp3806
a(((lp3807
I12
aI9
aI14
aI2
aI7
aI16
aI16
aI10
atp3808
(lp3809
I9
aI9
aI9
aI9
aI9
aI9
aI9
aI9
atp3810
a(((lp3811
I5
aI6
atp3812
(lp3813
I6
aI6
atp3814
a(((lp3815
I12
aI13
aI15
aI0
aI6
aI7
aI3
atp3816
(lp3817
I13
aI13
aI13
aI13
aI13
aI13
aI13
atp3818
a(((lp3819
I1
aI3
aI8
aI10
aI1
aI16
aI11
aI14
atp3820
(lp3821
I3
aI3
aI3
aI3
aI3
aI3
aI3
aI3
atp3822
a(((lp3823
I9
aI14
aI16
aI0
aI8
aI0
aI12
atp3824
(lp3825
I14
aI14
aI14
aI14
aI14
aI14
aI14
atp3826
a(((lp3827
I9
aI7
aI1
aI1
aI4
aI1
atp3828
(lp3829
I7
aI7
aI7
aI7
aI7
aI7
atp3830
a(((lp3831
I0
aI16
aI14
aI13
aI6
aI8
atp3832
(lp3833
I16
aI16
aI16
aI16
aI16
aI16
atp3834
a(((lp3835
I13
aI11
aI14
aI9
aI3
aI9
aI4
aI5
atp3836
(lp3837
I11
aI11
aI11
aI11
aI11
aI11
aI11
aI11
atp3838
a(((lp3839
I5
aI11
aI11
aI15
aI8
aI16
atp3840
(lp3841
I11
aI11
aI11
aI11
aI11
aI11
atp3842
asbag2
(g3
g4
Ntp3843
Rp3844
(dp3845
g8
I00
sg9
Nsg10
g2
(g11
g4
Ntp3846
Rp3847
(dp3848
g15
g16
sg17
(lp3849
g2
(g11
g4
Ntp3850
Rp3851
(dp3852
g15
g22
sg17
(lp3853
g25
asbag2
(g11
g4
Ntp3854
Rp3855
(dp3856
g15
g22
sg17
(lp3857
g25
asbasbsg15
Vreplace-all-with-index-k with k=3
p3858
sg34
(lp3859
(((lp3860
I3
aI9
aI6
aI11
aI4
aI5
aI8
atp3861
(lp3862
I6
aI6
aI6
aI6
aI6
aI6
aI6
atp3863
a(((lp3864
I0
aI15
aI1
aI14
aI0
atp3865
(lp3866
I1
aI1
aI1
aI1
aI1
atp3867
a(((lp3868
I13
aI1
aI9
aI3
aI14
aI10
aI8
aI7
aI14
atp3869
(lp3870
I9
aI9
aI9
aI9
aI9
aI9
aI9
aI9
aI9
atp3871
a(((lp3872
I10
aI5
aI13
aI7
aI10
atp3873
(lp3874
I13
aI13
aI13
aI13
aI13
atp3875
a(((lp3876
I5
aI13
aI5
atp3877
(lp3878
I5
aI5
aI5
atp3879
a(((lp3880
I3
aI13
aI1
atp3881
(lp3882
I1
aI1
aI1
atp3883
a(((lp3884
I8
aI14
aI9
aI2
aI9
aI15
aI5
aI12
aI9
aI4
atp3885
(lp3886
I9
aI9
aI9
aI9
aI9
aI9
aI9
aI9
aI9
aI9
atp3887
a(((lp3888
I7
aI2
aI5
aI16
aI12
atp3889
(lp3890
I5
aI5
aI5
aI5
aI5
atp3891
a(((lp3892
I7
aI13
aI10
aI7
aI2
aI7
aI11
aI10
atp3893
(lp3894
I10
aI10
aI10
aI10
aI10
aI10
aI10
aI10
atp3895
a(((lp3896
I1
aI9
aI2
aI5
aI0
atp3897
(lp3898
I2
aI2
aI2
aI2
aI2
atp3899
asbag2
(g3
g4
Ntp3900
Rp3901
(dp3902
g8
I00
sg9
Nsg10
g2
(g11
g4
Ntp3903
Rp3904
(dp3905
g15
g16
sg17
(lp3906
g2
(g11
g4
Ntp3907
Rp3908
(dp3909
g15
g22
sg17
(lp3910
g25
asbag2
(g11
g4
Ntp3911
Rp3912
(dp3913
g15
g22
sg17
(lp3914
g25
asbasbsg15
Vreplace-all-with-index-k with k=5
p3915
sg34
(lp3916
(((lp3917
I5
aI13
aI3
aI16
aI6
aI7
aI5
aI9
aI9
atp3918
(lp3919
I6
aI6
aI6
aI6
aI6
aI6
aI6
aI6
aI6
atp3920
a(((lp3921
I8
aI13
aI15
aI16
aI0
aI5
aI15
aI14
aI5
aI9
aI13
atp3922
(lp3923
I0
aI0
aI0
aI0
aI0
aI0
aI0
aI0
aI0
aI0
aI0
atp3924
a(((lp3925
I9
aI12
aI5
aI0
aI16
aI5
atp3926
(lp3927
I16
aI16
aI16
aI16
aI16
aI16
atp3928
a(((lp3929
I16
aI9
aI15
aI6
aI7
aI12
aI0
aI11
aI8
aI10
atp3930
(lp3931
I7
aI7
aI7
aI7
aI7
aI7
aI7
aI7
aI7
aI7
atp3932
a(((lp3933
I4
aI9
aI10
aI13
aI16
aI13
atp3934
(lp3935
I16
aI16
aI16
aI16
aI16
aI16
atp3936
a(((lp3937
I13
aI9
aI9
aI5
aI16
aI6
aI6
aI13
aI0
aI10
atp3938
(lp3939
I16
aI16
aI16
aI16
aI16
aI16
aI16
aI16
aI16
aI16
atp3940
a(((lp3941
I4
aI16
aI12
aI3
aI2
aI9
atp3942
(lp3943
I2
aI2
aI2
aI2
aI2
aI2
atp3944
a(((lp3945
I8
aI8
aI3
aI0
aI3
aI9
atp3946
(lp3947
I3
aI3
aI3
aI3
aI3
aI3
atp3948
a(((lp3949
I5
aI4
aI13
aI16
aI6
aI9
aI8
aI6
aI5
aI5
aI16
atp3950
(lp3951
I6
aI6
aI6
aI6
aI6
aI6
aI6
aI6
aI6
aI6
aI6
atp3952
a(((lp3953
I11
aI16
aI7
aI8
aI15
aI3
aI5
aI11
aI10
aI0
atp3954
(lp3955
I15
aI15
aI15
aI15
aI15
aI15
aI15
aI15
aI15
aI15
atp3956
asbag2
(g3
g4
Ntp3957
Rp3958
(dp3959
g8
I00
sg9
Nsg10
g2
(g11
g4
Ntp3960
Rp3961
(dp3962
g15
g16
sg17
(lp3963
g2
(g11
g4
Ntp3964
Rp3965
(dp3966
g15
g22
sg17
(lp3967
g25
asbag2
(g11
g4
Ntp3968
Rp3969
(dp3970
g15
g22
sg17
(lp3971
g25
asbasbsg15
Vreplace-index-k-with-n with k=1 and n=2
p3972
sg34
(lp3973
(((lp3974
I3
aI15
atp3975
(lp3976
I2
aI15
atp3977
a(((lp3978
I12
aI14
aI12
aI12
aI11
aI10
aI14
atp3979
(lp3980
I2
aI14
aI12
aI12
aI11
aI10
aI14
atp3981
a(((lp3982
I14
aI1
aI4
atp3983
(lp3984
I2
aI1
aI4
atp3985
a(((lp3986
I12
aI6
aI10
atp3987
(lp3988
I2
aI6
aI10
atp3989
a(((lp3990
I1
aI14
aI5
aI14
aI15
aI14
atp3991
(lp3992
I2
aI14
aI5
aI14
aI15
aI14
atp3993
a(((lp3994
I16
aI3
aI10
aI7
atp3995
(lp3996
I2
aI3
aI10
aI7
atp3997
a(((lp3998
I12
aI13
atp3999
(lp4000
I2
aI13
atp4001
a(((lp4002
I5
aI15
aI7
aI9
atp4003
(lp4004
I2
aI15
aI7
aI9
atp4005
a(((lp4006
I2
aI8
aI16
aI3
aI8
atp4007
(lp4008
I2
aI8
aI16
aI3
aI8
atp4009
a(((lp4010
I7
aI0
aI12
aI6
aI11
atp4011
(lp4012
I2
aI0
aI12
aI6
aI11
atp4013
asbag2
(g3
g4
Ntp4014
Rp4015
(dp4016
g8
I00
sg9
Nsg10
g2
(g11
g4
Ntp4017
Rp4018
(dp4019
g15
g16
sg17
(lp4020
g2
(g11
g4
Ntp4021
Rp4022
(dp4023
g15
g22
sg17
(lp4024
g25
asbag2
(g11
g4
Ntp4025
Rp4026
(dp4027
g15
g22
sg17
(lp4028
g25
asbasbsg15
Vreplace-index-k-with-n with k=2 and n=7
p4029
sg34
(lp4030
(((lp4031
I2
aI14
aI8
aI1
aI13
aI2
atp4032
(lp4033
I2
aI7
aI8
aI1
aI13
aI2
atp4034
a(((lp4035
I10
aI13
aI0
aI14
aI6
atp4036
(lp4037
I10
aI7
aI0
aI14
aI6
atp4038
a(((lp4039
I2
aI15
aI10
atp4040
(lp4041
I2
aI7
aI10
atp4042
a(((lp4043
I4
aI11
aI3
aI14
aI8
aI6
aI7
aI2
atp4044
(lp4045
I4
aI7
aI3
aI14
aI8
aI6
aI7
aI2
atp4046
a(((lp4047
I0
aI0
aI12
aI13
aI3
aI15
aI4
atp4048
(lp4049
I0
aI7
aI12
aI13
aI3
aI15
aI4
atp4050
a(((lp4051
I11
aI10
aI10
aI12
aI0
aI14
aI14
aI14
aI1
atp4052
(lp4053
I11
aI7
aI10
aI12
aI0
aI14
aI14
aI14
aI1
atp4054
a(((lp4055
I0
aI0
aI15
aI9
aI2
atp4056
(lp4057
I0
aI7
aI15
aI9
aI2
atp4058
a(((lp4059
I7
aI10
aI9
aI7
aI15
aI11
aI16
atp4060
(lp4061
I7
aI7
aI9
aI7
aI15
aI11
aI16
atp4062
a(((lp4063
I8
aI8
aI4
aI9
aI1
aI15
atp4064
(lp4065
I8
aI7
aI4
aI9
aI1
aI15
atp4066
a(((lp4067
I7
aI1
aI13
aI4
aI4
aI15
atp4068
(lp4069
I7
aI7
aI13
aI4
aI4
aI15
atp4070
asbag2
(g3
g4
Ntp4071
Rp4072
(dp4073
g8
I00
sg9
Nsg10
g2
(g11
g4
Ntp4074
Rp4075
(dp4076
g15
g16
sg17
(lp4077
g2
(g11
g4
Ntp4078
Rp4079
(dp4080
g15
g22
sg17
(lp4081
g25
asbag2
(g11
g4
Ntp4082
Rp4083
(dp4084
g15
g22
sg17
(lp4085
g25
asbasbsg15
Vreplace-index-k-with-n with k=3 and n=-2
p4086
sg34
(lp4087
(((lp4088
I15
aI12
aI12
aI8
atp4089
(lp4090
I15
aI12
aI-2
aI8
atp4091
a(((lp4092
I1
aI6
aI16
aI13
aI9
aI8
aI13
atp4093
(lp4094
I1
aI6
aI-2
aI13
aI9
aI8
aI13
atp4095
a(((lp4096
I4
aI10
aI10
atp4097
(lp4098
I4
aI10
aI-2
atp4099
a(((lp4100
I0
aI0
aI4
aI4
aI2
aI12
aI14
aI4
aI9
aI13
atp4101
(lp4102
I0
aI0
aI-2
aI4
aI2
aI12
aI14
aI4
aI9
aI13
atp4103
a(((lp4104
I7
aI6
aI3
aI10
aI10
aI12
aI9
atp4105
(lp4106
I7
aI6
aI-2
aI10
aI10
aI12
aI9
atp4107
a(((lp4108
I8
aI2
aI5
aI13
aI4
aI13
aI6
aI6
aI6
aI1
atp4109
(lp4110
I8
aI2
aI-2
aI13
aI4
aI13
aI6
aI6
aI6
aI1
atp4111
a(((lp4112
I1
aI4
aI13
aI3
aI8
aI7
aI7
atp4113
(lp4114
I1
aI4
aI-2
aI3
aI8
aI7
aI7
atp4115
a(((lp4116
I14
aI0
aI12
aI16
aI11
aI12
aI13
aI13
aI15
aI11
atp4117
(lp4118
I14
aI0
aI-2
aI16
aI11
aI12
aI13
aI13
aI15
aI11
atp4119
a(((lp4120
I3
aI9
aI1
aI3
aI0
aI11
aI8
aI7
aI11
atp4121
(lp4122
I3
aI9
aI-2
aI3
aI0
aI11
aI8
aI7
aI11
atp4123
a(((lp4124
I6
aI14
aI8
aI10
aI3
aI1
aI1
aI16
aI14
aI2
atp4125
(lp4126
I6
aI14
aI-2
aI10
aI3
aI1
aI1
aI16
aI14
aI2
atp4127
asbag2
(g3
g4
Ntp4128
Rp4129
(dp4130
g8
I00
sg9
Nsg10
g2
(g11
g4
Ntp4131
Rp4132
(dp4133
g15
g16
sg17
(lp4134
g2
(g11
g4
Ntp4135
Rp4136
(dp4137
g15
g22
sg17
(lp4138
g25
asbag2
(g11
g4
Ntp4139
Rp4140
(dp4141
g15
g22
sg17
(lp4142
g25
asbasbsg15
Vreplace-index-k-with-n with k=5 and n=0
p4143
sg34
(lp4144
(((lp4145
I6
aI4
aI3
aI16
aI1
aI13
aI13
aI14
aI15
aI12
aI10
atp4146
(lp4147
I6
aI4
aI3
aI16
aI0
aI13
aI13
aI14
aI15
aI12
aI10
atp4148
a(((lp4149
I1
aI9
aI4
aI9
aI1
aI2
aI10
aI11
aI16
aI11
aI1
aI0
atp4150
(lp4151
I1
aI9
aI4
aI9
aI0
aI2
aI10
aI11
aI16
aI11
aI1
aI0
atp4152
a(((lp4153
I8
aI7
aI9
aI2
aI0
atp4154
(lp4155
I8
aI7
aI9
aI2
aI0
atp4156
a(((lp4157
I7
aI8
aI15
aI12
aI11
aI1
aI4
aI6
aI6
aI0
aI8
aI13
atp4158
(lp4159
I7
aI8
aI15
aI12
aI0
aI1
aI4
aI6
aI6
aI0
aI8
aI13
atp4160
a(((lp4161
I13
aI10
aI2
aI5
aI11
aI13
aI2
aI6
aI9
aI3
aI7
atp4162
(lp4163
I13
aI10
aI2
aI5
aI0
aI13
aI2
aI6
aI9
aI3
aI7
atp4164
a(((lp4165
I16
aI1
aI7
aI12
aI10
aI12
aI13
aI13
aI11
aI0
aI10
atp4166
(lp4167
I16
aI1
aI7
aI12
aI0
aI12
aI13
aI13
aI11
aI0
aI10
atp4168
a(((lp4169
I3
aI16
aI16
aI11
aI1
aI5
aI8
aI4
atp4170
(lp4171
I3
aI16
aI16
aI11
aI0
aI5
aI8
aI4
atp4172
a(((lp4173
I9
aI2
aI16
aI13
aI4
aI9
aI9
aI4
aI6
aI5
atp4174
(lp4175
I9
aI2
aI16
aI13
aI0
aI9
aI9
aI4
aI6
aI5
atp4176
a(((lp4177
I0
aI2
aI14
aI15
aI2
aI1
aI12
aI12
aI7
atp4178
(lp4179
I0
aI2
aI14
aI15
aI0
aI1
aI12
aI12
aI7
atp4180
a(((lp4181
I7
aI6
aI14
aI13
aI4
atp4182
(lp4183
I7
aI6
aI14
aI13
aI0
atp4184
asbag2
(g3
g4
Ntp4185
Rp4186
(dp4187
g8
I00
sg9
Nsg10
g2
(g11
g4
Ntp4188
Rp4189
(dp4190
g15
g16
sg17
(lp4191
g2
(g11
g4
Ntp4192
Rp4193
(dp4194
g15
g22
sg17
(lp4195
g25
asbag2
(g11
g4
Ntp4196
Rp4197
(dp4198
g15
g22
sg17
(lp4199
g25
asbasbsg15
Vreverse
p4200
sg34
(lp4201
(((lp4202
I2
aI0
aI4
atp4203
(lp4204
I4
aI0
aI2
atp4205
a(((lp4206
I2
aI5
aI4
aI2
aI0
aI5
aI1
aI1
atp4207
(lp4208
I1
aI1
aI5
aI0
aI2
aI4
aI5
aI2
atp4209
asbag2
(g3
g4
Ntp4210
Rp4211
(dp4212
g8
I00
sg9
Nsg10
g2
(g11
g4
Ntp4213
Rp4214
(dp4215
g15
g16
sg17
(lp4216
g2
(g11
g4
Ntp4217
Rp4218
(dp4219
g15
g22
sg17
(lp4220
g25
asbag2
(g11
g4
Ntp4221
Rp4222
(dp4223
g15
g22
sg17
(lp4224
g25
asbasbsg15
Vrotate-k with k=1
p4225
sg34
(lp4226
(((lp4227
I3
aI16
aI6
aI7
aI5
aI14
aI5
aI3
aI15
atp4228
(lp4229
I15
aI3
aI16
aI6
aI7
aI5
aI14
aI5
aI3
atp4230
a(((lp4231
I3
aI4
aI7
aI3
aI5
aI5
aI0
aI7
aI4
aI5
atp4232
(lp4233
I5
aI3
aI4
aI7
aI3
aI5
aI5
aI0
aI7
aI4
atp4234
a(((lp4235
I15
aI5
aI11
aI9
aI7
aI11
aI7
aI2
atp4236
(lp4237
I2
aI15
aI5
aI11
aI9
aI7
aI11
aI7
atp4238
a(((lp4239
I0
aI15
aI13
aI13
aI13
aI15
aI2
aI13
atp4240
(lp4241
I13
aI0
aI15
aI13
aI13
aI13
aI15
aI2
atp4242
a(((lp4243
I7
aI9
atp4244
(lp4245
I9
aI7
atp4246
a(((lp4247
I13
aI5
aI3
aI14
aI4
aI11
aI1
aI2
aI6
aI6
aI11
aI12
aI4
aI14
aI15
aI5
atp4248
(lp4249
I5
aI13
aI5
aI3
aI14
aI4
aI11
aI1
aI2
aI6
aI6
aI11
aI12
aI4
aI14
aI15
atp4250
a(((lp4251
I2
aI16
aI15
aI12
aI10
aI8
aI6
aI16
aI16
aI16
aI14
aI7
aI15
atp4252
(lp4253
I15
aI2
aI16
aI15
aI12
aI10
aI8
aI6
aI16
aI16
aI16
aI14
aI7
atp4254
a(((lp4255
I14
aI2
aI12
aI1
aI12
aI0
aI14
atp4256
(lp4257
I14
aI14
aI2
aI12
aI1
aI12
aI0
atp4258
a(((lp4259
I10
aI16
aI5
aI11
aI7
aI3
aI12
aI10
aI5
aI13
atp4260
(lp4261
I13
aI10
aI16
aI5
aI11
aI7
aI3
aI12
aI10
aI5
atp4262
a(((lp4263
I13
aI0
aI6
aI2
aI2
aI10
aI0
aI12
aI12
aI9
aI8
aI0
aI12
aI8
aI2
atp4264
(lp4265
I2
aI13
aI0
aI6
aI2
aI2
aI10
aI0
aI12
aI12
aI9
aI8
aI0
aI12
aI8
atp4266
asbag2
(g3
g4
Ntp4267
Rp4268
(dp4269
g8
I00
sg9
Nsg10
g2
(g11
g4
Ntp4270
Rp4271
(dp4272
g15
g16
sg17
(lp4273
g2
(g11
g4
Ntp4274
Rp4275
(dp4276
g15
g22
sg17
(lp4277
g25
asbag2
(g11
g4
Ntp4278
Rp4279
(dp4280
g15
g22
sg17
(lp4281
g25
asbasbsg15
Vrotate-k with k=3
p4282
sg34
(lp4283
(((lp4284
I6
aI7
aI0
aI16
aI13
aI14
aI5
aI8
aI3
aI1
aI0
aI4
aI3
atp4285
(lp4286
I0
aI4
aI3
aI6
aI7
aI0
aI16
aI13
aI14
aI5
aI8
aI3
aI1
atp4287
a(((lp4288
I10
aI0
aI11
aI1
aI15
aI5
aI11
atp4289
(lp4290
I15
aI5
aI11
aI10
aI0
aI11
aI1
atp4291
a(((lp4292
I1
aI13
aI16
aI13
aI9
aI9
aI2
aI10
aI13
atp4293
(lp4294
I2
aI10
aI13
aI1
aI13
aI16
aI13
aI9
aI9
atp4295
a(((lp4296
I14
aI13
aI14
aI10
atp4297
(lp4298
I13
aI14
aI10
aI14
atp4299
a(((lp4300
I6
aI14
aI15
aI5
aI1
aI14
atp4301
(lp4302
I5
aI1
aI14
aI6
aI14
aI15
atp4303
a(((lp4304
I13
aI0
aI5
aI1
aI6
aI6
aI11
atp4305
(lp4306
I6
aI6
aI11
aI13
aI0
aI5
aI1
atp4307
a(((lp4308
I8
aI10
aI6
aI2
aI5
aI10
aI11
aI11
aI2
aI8
aI1
aI12
aI12
aI12
aI9
aI6
aI0
atp4309
(lp4310
I9
aI6
aI0
aI8
aI10
aI6
aI2
aI5
aI10
aI11
aI11
aI2
aI8
aI1
aI12
aI12
aI12
atp4311
a(((lp4312
I1
aI0
aI12
aI1
aI11
aI16
aI10
aI11
aI10
aI15
aI5
aI6
aI11
aI2
aI9
atp4313
(lp4314
I11
aI2
aI9
aI1
aI0
aI12
aI1
aI11
aI16
aI10
aI11
aI10
aI15
aI5
aI6
atp4315
a(((lp4316
I6
aI16
aI16
aI12
aI7
aI16
aI14
aI13
atp4317
(lp4318
I16
aI14
aI13
aI6
aI16
aI16
aI12
aI7
atp4319
a(((lp4320
I7
aI13
aI7
aI7
aI4
aI12
aI8
aI2
aI16
aI15
aI10
aI6
aI10
aI12
atp4321
(lp4322
I6
aI10
aI12
aI7
aI13
aI7
aI7
aI4
aI12
aI8
aI2
aI16
aI15
aI10
atp4323
asbag2
(g3
g4
Ntp4324
Rp4325
(dp4326
g8
I00
sg9
Nsg10
g2
(g11
g4
Ntp4327
Rp4328
(dp4329
g15
g16
sg17
(lp4330
g2
(g11
g4
Ntp4331
Rp4332
(dp4333
g15
g22
sg17
(lp4334
g25
asbag2
(g11
g4
Ntp4335
Rp4336
(dp4337
g15
g22
sg17
(lp4338
g25
asbasbsg15
Vrotate-k with k=-2
p4339
sg34
(lp4340
(((lp4341
I14
aI14
aI16
aI7
aI5
aI5
aI6
aI5
aI15
aI2
aI9
aI8
aI1
aI8
atp4342
(lp4343
I16
aI7
aI5
aI5
aI6
aI5
aI15
aI2
aI9
aI8
aI1
aI8
aI14
aI14
atp4344
a(((lp4345
I9
aI4
aI4
aI9
aI3
aI4
aI12
aI0
aI12
aI12
aI7
aI3
atp4346
(lp4347
I4
aI9
aI3
aI4
aI12
aI0
aI12
aI12
aI7
aI3
aI9
aI4
atp4348
a(((lp4349
I5
aI16
aI1
aI1
aI16
aI15
aI1
aI12
aI8
aI12
aI0
aI10
aI12
aI15
aI15
aI14
aI15
atp4350
(lp4351
I1
aI1
aI16
aI15
aI1
aI12
aI8
aI12
aI0
aI10
aI12
aI15
aI15
aI14
aI15
aI5
aI16
atp4352
a(((lp4353
I6
aI13
aI16
aI2
aI14
aI4
aI12
aI3
aI12
aI16
aI0
aI3
atp4354
(lp4355
I16
aI2
aI14
aI4
aI12
aI3
aI12
aI16
aI0
aI3
aI6
aI13
atp4356
a(((lp4357
I10
aI7
aI15
aI12
aI4
atp4358
(lp4359
I15
aI12
aI4
aI10
aI7
atp4360
a(((lp4361
I9
aI3
aI6
aI0
aI0
aI9
aI9
aI6
atp4362
(lp4363
I6
aI0
aI0
aI9
aI9
aI6
aI9
aI3
atp4364
a(((lp4365
I5
aI2
aI3
aI15
aI13
aI12
aI13
aI5
aI1
aI15
aI3
aI15
aI16
aI2
aI3
aI0
atp4366
(lp4367
I3
aI15
aI13
aI12
aI13
aI5
aI1
aI15
aI3
aI15
aI16
aI2
aI3
aI0
aI5
aI2
atp4368
a(((lp4369
I4
aI3
aI4
aI5
aI0
aI3
aI15
aI4
aI16
aI8
atp4370
(lp4371
I4
aI5
aI0
aI3
aI15
aI4
aI16
aI8
aI4
aI3
atp4372
a(((lp4373
I6
aI2
aI11
atp4374
(lp4375
I11
aI6
aI2
atp4376
a(((lp4377
I4
aI12
aI1
aI0
aI0
aI7
aI4
aI3
aI7
aI4
aI0
aI16
aI11
aI6
aI3
aI6
atp4378
(lp4379
I1
aI0
aI0
aI7
aI4
aI3
aI7
aI4
aI0
aI16
aI11
aI6
aI3
aI6
aI4
aI12
atp4380
asbag2
(g3
g4
Ntp4381
Rp4382
(dp4383
g8
I00
sg9
Nsg10
g2
(g11
g4
Ntp4384
Rp4385
(dp4386
g15
g16
sg17
(lp4387
g2
(g11
g4
Ntp4388
Rp4389
(dp4390
g15
g22
sg17
(lp4391
g25
asbag2
(g11
g4
Ntp4392
Rp4393
(dp4394
g15
g22
sg17
(lp4395
g25
asbasbsg15
Vrotate-k with k=3
p4396
sg34
(lp4397
(((lp4398
I12
aI10
aI7
aI13
aI15
aI5
aI6
aI9
aI0
aI10
aI13
aI16
aI14
aI15
atp4399
(lp4400
I16
aI14
aI15
aI12
aI10
aI7
aI13
aI15
aI5
aI6
aI9
aI0
aI10
aI13
atp4401
a(((lp4402
I11
aI1
aI5
aI7
aI12
aI4
aI4
aI10
aI11
aI7
aI7
aI1
aI8
atp4403
(lp4404
I7
aI1
aI8
aI11
aI1
aI5
aI7
aI12
aI4
aI4
aI10
aI11
aI7
atp4405
a(((lp4406
I0
aI6
aI6
aI7
aI13
atp4407
(lp4408
I6
aI7
aI13
aI0
aI6
atp4409
a(((lp4410
I13
aI5
aI0
aI16
aI1
aI2
aI4
aI5
aI8
aI3
aI12
aI13
aI15
aI12
aI14
aI11
aI7
atp4411
(lp4412
I14
aI11
aI7
aI13
aI5
aI0
aI16
aI1
aI2
aI4
aI5
aI8
aI3
aI12
aI13
aI15
aI12
atp4413
a(((lp4414
I5
aI9
aI8
aI14
aI1
aI9
aI14
aI11
aI8
aI5
aI8
aI11
aI2
aI4
aI14
aI16
aI13
atp4415
(lp4416
I14
aI16
aI13
aI5
aI9
aI8
aI14
aI1
aI9
aI14
aI11
aI8
aI5
aI8
aI11
aI2
aI4
atp4417
a(((lp4418
I1
aI6
aI4
aI10
aI15
aI10
aI2
aI15
aI9
aI4
atp4419
(lp4420
I15
aI9
aI4
aI1
aI6
aI4
aI10
aI15
aI10
aI2
atp4421
a(((lp4422
I15
aI16
aI2
aI2
aI15
aI4
aI9
aI15
aI11
aI15
aI3
aI6
aI14
atp4423
(lp4424
I3
aI6
aI14
aI15
aI16
aI2
aI2
aI15
aI4
aI9
aI15
aI11
aI15
atp4425
a(((lp4426
I3
aI9
aI11
aI0
aI5
atp4427
(lp4428
I11
aI0
aI5
aI3
aI9
atp4429
a(((lp4430
I5
aI2
aI11
aI10
aI0
aI5
aI10
aI7
aI8
aI6
aI5
aI0
aI10
aI7
atp4431
(lp4432
I0
aI10
aI7
aI5
aI2
aI11
aI10
aI0
aI5
aI10
aI7
aI8
aI6
aI5
atp4433
a(((lp4434
I9
aI5
aI4
aI7
aI3
aI16
aI4
aI15
aI2
aI3
aI1
aI2
aI1
atp4435
(lp4436
I1
aI2
aI1
aI9
aI5
aI4
aI7
aI3
aI16
aI4
aI15
aI2
aI3
atp4437
asbag2
(g3
g4
Ntp4438
Rp4439
(dp4440
g8
I00
sg9
Nsg10
g2
(g11
g4
Ntp4441
Rp4442
(dp4443
g15
g16
sg17
(lp4444
g2
(g11
g4
Ntp4445
Rp4446
(dp4447
g15
g22
sg17
(lp4448
g25
asbag2
(g11
g4
Ntp4449
Rp4450
(dp4451
g15
g22
sg17
(lp4452
g25
asbasbsg15
Vslice-k-n with k=2 and n=2
p4453
sg34
(lp4454
(((lp4455
I12
aI0
aI9
aI13
aI9
aI6
aI16
aI9
aI12
aI4
aI2
aI12
atp4456
(lp4457
I0
aI9
atp4458
a(((lp4459
I11
aI6
aI13
aI0
aI5
aI8
aI1
aI4
aI11
aI6
atp4460
(lp4461
I6
aI13
atp4462
a(((lp4463
I1
aI15
aI1
aI1
aI2
aI6
aI0
aI8
aI15
aI6
aI6
aI4
atp4464
(lp4465
I15
aI1
atp4466
a(((lp4467
I7
aI2
aI4
aI12
aI7
aI6
atp4468
(lp4469
I2
aI4
atp4470
a(((lp4471
I7
aI11
aI10
aI5
aI15
aI12
aI12
aI9
aI13
aI2
aI6
aI2
atp4472
(lp4473
I11
aI10
atp4474
a(((lp4475
I2
aI2
aI6
aI4
aI13
aI1
atp4476
(lp4477
I2
aI6
atp4478
a(((lp4479
I2
aI15
aI0
aI4
aI16
atp4480
(lp4481
I15
aI0
atp4482
a(((lp4483
I8
aI6
aI8
aI13
aI1
aI9
aI13
aI7
atp4484
(lp4485
I6
aI8
atp4486
a(((lp4487
I8
aI5
aI9
aI12
aI0
aI0
aI3
aI11
aI14
atp4488
(lp4489
I5
aI9
atp4490
a(((lp4491
I0
aI5
aI7
aI1
aI7
aI13
atp4492
(lp4493
I5
aI7
atp4494
asbag2
(g3
g4
Ntp4495
Rp4496
(dp4497
g8
I00
sg9
Nsg10
g2
(g11
g4
Ntp4498
Rp4499
(dp4500
g15
g16
sg17
(lp4501
g2
(g11
g4
Ntp4502
Rp4503
(dp4504
g15
g22
sg17
(lp4505
g25
asbag2
(g11
g4
Ntp4506
Rp4507
(dp4508
g15
g22
sg17
(lp4509
g25
asbasbsg15
Vslice-k-n with k=2 and n=3
p4510
sg34
(lp4511
(((lp4512
I14
aI14
aI7
aI13
aI16
aI9
aI14
aI4
aI0
aI4
aI11
aI10
atp4513
(lp4514
I14
aI7
aI13
atp4515
a(((lp4516
I8
aI15
aI6
aI10
aI16
aI14
aI3
aI6
aI15
aI14
aI13
atp4517
(lp4518
I15
aI6
aI10
atp4519
a(((lp4520
I0
aI9
aI1
aI9
aI15
aI4
atp4521
(lp4522
I9
aI1
aI9
atp4523
a(((lp4524
I9
aI15
aI3
aI13
aI8
aI8
aI11
aI4
aI4
aI6
atp4525
(lp4526
I15
aI3
aI13
atp4527
a(((lp4528
I4
aI1
aI13
aI14
aI10
aI14
aI14
aI13
aI10
aI6
atp4529
(lp4530
I1
aI13
aI14
atp4531
a(((lp4532
I2
aI12
aI7
aI0
aI10
aI12
aI5
aI7
aI5
aI14
aI11
atp4533
(lp4534
I12
aI7
aI0
atp4535
a(((lp4536
I3
aI12
aI16
aI15
aI4
aI13
atp4537
(lp4538
I12
aI16
aI15
atp4539
a(((lp4540
I4
aI13
aI16
aI2
aI10
aI9
atp4541
(lp4542
I13
aI16
aI2
atp4543
a(((lp4544
I1
aI2
aI7
aI3
aI11
aI13
aI8
aI4
aI14
aI0
atp4545
(lp4546
I2
aI7
aI3
atp4547
a(((lp4548
I1
aI6
aI3
aI15
aI16
aI6
aI4
aI15
aI4
atp4549
(lp4550
I6
aI3
aI15
atp4551
asbag2
(g3
g4
Ntp4552
Rp4553
(dp4554
g8
I00
sg9
Nsg10
g2
(g11
g4
Ntp4555
Rp4556
(dp4557
g15
g16
sg17
(lp4558
g2
(g11
g4
Ntp4559
Rp4560
(dp4561
g15
g22
sg17
(lp4562
g25
asbag2
(g11
g4
Ntp4563
Rp4564
(dp4565
g15
g22
sg17
(lp4566
g25
asbasbsg15
Vslice-k-n with k=3 and n=3
p4567
sg34
(lp4568
(((lp4569
I1
aI6
aI1
aI0
aI13
aI11
aI6
aI12
aI13
aI0
aI13
aI16
atp4570
(lp4571
I1
aI0
aI13
atp4572
a(((lp4573
I13
aI2
aI0
aI3
aI14
aI6
aI3
aI11
aI9
aI14
aI16
aI0
aI9
aI6
atp4574
(lp4575
I0
aI3
aI14
atp4576
a(((lp4577
I5
aI9
aI13
aI10
aI16
aI15
aI6
aI6
aI14
aI7
aI8
aI2
atp4578
(lp4579
I13
aI10
aI16
atp4580
a(((lp4581
I10
aI7
aI7
aI7
aI1
aI4
aI12
aI10
aI0
aI1
aI0
aI6
atp4582
(lp4583
I7
aI7
aI1
atp4584
a(((lp4585
I13
aI5
aI13
aI0
aI6
aI12
aI10
aI4
aI12
aI15
aI7
aI7
aI10
aI13
atp4586
(lp4587
I13
aI0
aI6
atp4588
a(((lp4589
I0
aI10
aI14
aI10
aI1
aI14
aI14
atp4590
(lp4591
I14
aI10
aI1
atp4592
a(((lp4593
I12
aI14
aI4
aI2
aI15
aI16
aI9
aI5
aI1
aI3
aI1
aI4
aI12
aI16
atp4594
(lp4595
I4
aI2
aI15
atp4596
a(((lp4597
I3
aI10
aI7
aI4
aI11
aI12
aI2
aI11
aI12
aI13
atp4598
(lp4599
I7
aI4
aI11
atp4600
a(((lp4601
I2
aI1
aI10
aI9
aI16
aI15
aI5
aI8
atp4602
(lp4603
I10
aI9
aI16
atp4604
a(((lp4605
I1
aI5
aI7
aI9
aI3
aI8
aI6
atp4606
(lp4607
I7
aI9
aI3
atp4608
asbag2
(g3
g4
Ntp4609
Rp4610
(dp4611
g8
I00
sg9
Nsg10
g2
(g11
g4
Ntp4612
Rp4613
(dp4614
g15
g16
sg17
(lp4615
g2
(g11
g4
Ntp4616
Rp4617
(dp4618
g15
g22
sg17
(lp4619
g25
asbag2
(g11
g4
Ntp4620
Rp4621
(dp4622
g15
g22
sg17
(lp4623
g25
asbasbsg15
Vslice-k-n with k=3 and n=4
p4624
sg34
(lp4625
(((lp4626
I14
aI6
aI8
aI16
aI12
aI15
aI13
aI7
aI4
aI8
aI6
atp4627
(lp4628
I8
aI16
aI12
aI15
atp4629
a(((lp4630
I1
aI16
aI4
aI1
aI10
aI15
aI0
aI2
aI10
atp4631
(lp4632
I4
aI1
aI10
aI15
atp4633
a(((lp4634
I2
aI1
aI3
aI0
aI4
aI1
aI5
aI5
aI6
aI4
aI7
aI5
aI16
aI11
atp4635
(lp4636
I3
aI0
aI4
aI1
atp4637
a(((lp4638
I1
aI3
aI9
aI7
aI6
aI0
aI2
aI4
atp4639
(lp4640
I9
aI7
aI6
aI0
atp4641
a(((lp4642
I6
aI1
aI13
aI10
aI16
aI5
aI3
aI11
aI16
atp4643
(lp4644
I13
aI10
aI16
aI5
atp4645
a(((lp4646
I8
aI16
aI2
aI9
aI10
aI14
aI15
aI4
aI9
atp4647
(lp4648
I2
aI9
aI10
aI14
atp4649
a(((lp4650
I14
aI3
aI14
aI4
aI11
aI0
aI9
aI1
atp4651
(lp4652
I14
aI4
aI11
aI0
atp4653
a(((lp4654
I12
aI7
aI11
aI1
aI2
aI0
aI7
aI8
aI5
aI7
atp4655
(lp4656
I11
aI1
aI2
aI0
atp4657
a(((lp4658
I2
aI9
aI9
aI4
aI7
aI11
aI8
aI13
aI10
atp4659
(lp4660
I9
aI4
aI7
aI11
atp4661
a(((lp4662
I0
aI5
aI14
aI12
aI5
aI8
aI1
aI1
aI8
aI13
aI8
aI0
aI6
aI16
atp4663
(lp4664
I14
aI12
aI5
aI8
atp4665
asbag2
(g3
g4
Ntp4666
Rp4667
(dp4668
g8
I00
sg9
Nsg10
g2
(g11
g4
Ntp4669
Rp4670
(dp4671
g15
g16
sg17
(lp4672
g2
(g11
g4
Ntp4673
Rp4674
(dp4675
g15
g22
sg17
(lp4676
g25
asbag2
(g11
g4
Ntp4677
Rp4678
(dp4679
g15
g22
sg17
(lp4680
g25
asbasbsg15
Vsort
p4681
sg34
(lp4682
(((lp4683
I2
aI0
aI4
atp4684
(lp4685
I0
aI2
aI4
atp4686
a(((lp4687
I2
aI5
aI4
aI2
aI0
aI5
aI1
aI1
atp4688
(lp4689
I0
aI1
aI1
aI2
aI2
aI4
aI5
aI5
atp4690
asbag2
(g3
g4
Ntp4691
Rp4692
(dp4693
g8
I00
sg9
Nsg10
g2
(g11
g4
Ntp4694
Rp4695
(dp4696
g15
g16
sg17
(lp4697
g2
(g11
g4
Ntp4698
Rp4699
(dp4700
g15
g22
sg17
(lp4701
g25
asbag25
asbsg15
Vsum
p4702
sg34
(lp4703
(((lp4704
I1
aI2
aI3
atp4705
I6
tp4706
a(((lp4707
I0
atp4708
I0
tp4709
a(((lp4710
I1
aI1
aI2
aI1
atp4711
I5
tp4712
a(((lp4713
I16
atp4714
I16
tp4715
a(((lp4716
I2
aI10
aI9
aI4
aI8
aI0
aI1
atp4717
I34
tp4718
a(((lp4719
tp4720
I0
tp4721
a(((lp4722
I5
aI10
aI14
aI8
atp4723
I37
tp4724
a(((lp4725
I15
aI14
aI7
aI11
aI1
aI3
atp4726
I51
tp4727
a(((lp4728
I13
atp4729
I13
tp4730
a(((lp4731
I3
aI1
aI14
atp4732
I18
tp4733
asbag2
(g3
g4
Ntp4734
Rp4735
(dp4736
g8
I00
sg9
Nsg10
g2
(g11
g4
Ntp4737
Rp4738
(dp4739
g15
g16
sg17
(lp4740
g2
(g11
g4
Ntp4741
Rp4742
(dp4743
g15
g22
sg17
(lp4744
g25
asbag2
(g11
g4
Ntp4745
Rp4746
(dp4747
g15
g22
sg17
(lp4748
g25
asbasbsg15
Vtail
p4749
sg34
(lp4750
(((lp4751
I5
aI9
aI1
atp4752
(lp4753
I9
aI1
atp4754
a(((lp4755
I12
aI4
atp4756
(lp4757
I4
atp4758
a(((lp4759
I2
aI3
aI6
aI7
atp4760
(lp4761
I3
aI6
aI7
atp4762
asbag2
(g3
g4
Ntp4763
Rp4764
(dp4765
g8
I00
sg9
Nsg10
g2
(g11
g4
Ntp4766
Rp4767
(dp4768
g15
g16
sg17
(lp4769
g2
(g11
g4
Ntp4770
Rp4771
(dp4772
g15
g22
sg17
(lp4773
g25
asbag2
(g11
g4
Ntp4774
Rp4775
(dp4776
g15
g22
sg17
(lp4777
g25
asbasbsg15
Vtake-k with k=2
p4778
sg34
(lp4779
(((lp4780
I14
aI5
aI13
aI13
aI8
aI15
aI9
aI2
atp4781
(lp4782
I14
aI5
atp4783
a(((lp4784
I14
aI13
aI6
aI0
atp4785
(lp4786
I14
aI13
atp4787
a(((lp4788
I5
aI7
aI3
aI3
aI5
aI10
aI1
aI0
aI15
atp4789
(lp4790
I5
aI7
atp4791
a(((lp4792
I11
aI0
aI4
aI1
aI0
aI10
atp4793
(lp4794
I11
aI0
atp4795
a(((lp4796
I15
aI5
atp4797
(lp4798
I15
aI5
atp4799
a(((lp4800
I16
aI14
aI14
aI1
aI14
aI5
atp4801
(lp4802
I16
aI14
atp4803
a(((lp4804
I14
aI16
aI14
aI14
aI11
aI10
aI0
aI12
aI4
atp4805
(lp4806
I14
aI16
atp4807
a(((lp4808
I10
aI4
aI11
aI6
aI1
aI15
atp4809
(lp4810
I10
aI4
atp4811
a(((lp4812
I6
aI12
aI1
atp4813
(lp4814
I6
aI12
atp4815
a(((lp4816
I11
aI14
atp4817
(lp4818
I11
aI14
atp4819
asbag2
(g3
g4
Ntp4820
Rp4821
(dp4822
g8
I00
sg9
Nsg10
g2
(g11
g4
Ntp4823
Rp4824
(dp4825
g15
g16
sg17
(lp4826
g2
(g11
g4
Ntp4827
Rp4828
(dp4829
g15
g22
sg17
(lp4830
g25
asbag2
(g11
g4
Ntp4831
Rp4832
(dp4833
g15
g22
sg17
(lp4834
g25
asbasbsg15
Vtake-k with k=3
p4835
sg34
(lp4836
(((lp4837
I10
aI11
aI11
aI3
aI6
aI4
aI16
aI8
aI8
aI13
atp4838
(lp4839
I10
aI11
aI11
atp4840
a(((lp4841
I11
aI14
aI12
aI4
aI15
aI8
atp4842
(lp4843
I11
aI14
aI12
atp4844
a(((lp4845
I13
aI8
aI11
aI9
aI10
aI7
aI3
aI5
atp4846
(lp4847
I13
aI8
aI11
atp4848
a(((lp4849
I12
aI2
aI4
aI6
aI7
atp4850
(lp4851
I12
aI2
aI4
atp4852
a(((lp4853
I1
aI10
aI3
aI0
aI10
aI14
aI15
aI9
aI6
atp4854
(lp4855
I1
aI10
aI3
atp4856
a(((lp4857
I10
aI13
aI2
atp4858
(lp4859
I10
aI13
aI2
atp4860
a(((lp4861
I0
aI15
aI12
aI7
aI3
aI8
aI8
aI0
aI4
aI6
atp4862
(lp4863
I0
aI15
aI12
atp4864
a(((lp4865
I9
aI2
aI3
aI11
atp4866
(lp4867
I9
aI2
aI3
atp4868
a(((lp4869
I7
aI16
aI3
aI2
aI10
aI2
aI16
aI11
aI7
atp4870
(lp4871
I7
aI16
aI3
atp4872
a(((lp4873
I4
aI9
aI9
atp4874
(lp4875
I4
aI9
aI9
atp4876
asbag2
(g3
g4
Ntp4877
Rp4878
(dp4879
g8
I00
sg9
Nsg10
g2
(g11
g4
Ntp4880
Rp4881
(dp4882
g15
g16
sg17
(lp4883
g2
(g11
g4
Ntp4884
Rp4885
(dp4886
g15
g22
sg17
(lp4887
g25
asbag2
(g11
g4
Ntp4888
Rp4889
(dp4890
g15
g22
sg17
(lp4891
g25
asbasbsg15
Vtake-k with k=5
p4892
sg34
(lp4893
(((lp4894
I13
aI1
aI8
aI13
aI4
atp4895
(lp4896
I13
aI1
aI8
aI13
aI4
atp4897
a(((lp4898
I3
aI6
aI9
aI1
aI6
atp4899
(lp4900
I3
aI6
aI9
aI1
aI6
atp4901
a(((lp4902
I8
aI9
aI4
aI5
aI14
aI13
aI15
aI14
aI8
aI11
atp4903
(lp4904
I8
aI9
aI4
aI5
aI14
atp4905
a(((lp4906
I13
aI14
aI1
aI16
aI12
atp4907
(lp4908
I13
aI14
aI1
aI16
aI12
atp4909
a(((lp4910
I9
aI10
aI12
aI11
aI0
aI12
aI13
atp4911
(lp4912
I9
aI10
aI12
aI11
aI0
atp4913
a(((lp4914
I10
aI13
aI14
aI1
aI2
aI13
aI0
aI8
aI8
aI8
atp4915
(lp4916
I10
aI13
aI14
aI1
aI2
atp4917
a(((lp4918
I2
aI10
aI2
aI3
aI6
aI11
aI10
aI0
aI14
aI0
aI1
aI8
atp4919
(lp4920
I2
aI10
aI2
aI3
aI6
atp4921
a(((lp4922
I6
aI5
aI5
aI4
aI5
aI6
aI3
aI16
aI12
atp4923
(lp4924
I6
aI5
aI5
aI4
aI5
atp4925
a(((lp4926
I14
aI13
aI6
aI7
aI7
aI8
aI15
aI8
aI0
aI10
atp4927
(lp4928
I14
aI13
aI6
aI7
aI7
atp4929
a(((lp4930
I12
aI10
aI13
aI8
aI16
aI4
aI7
aI9
aI16
atp4931
(lp4932
I12
aI10
aI13
aI8
aI16
atp4933
asbag2
(g3
g4
Ntp4934
Rp4935
(dp4936
g8
I00
sg9
Nsg10
g2
(g11
g4
Ntp4937
Rp4938
(dp4939
g15
g16
sg17
(lp4940
g2
(g11
g4
Ntp4941
Rp4942
(dp4943
g15
g22
sg17
(lp4944
g25
asbag2
(g11
g4
Ntp4945
Rp4946
(dp4947
g15
g22
sg17
(lp4948
g25
asbasbsg15
Vuniq
p4949
sg34
(lp4950
(((lp4951
I1
aI1
aI1
atp4952
(lp4953
I1
atp4954
a(((lp4955
I2
aI5
aI4
aI2
aI2
aI0
aI5
aI1
aI1
atp4956
(lp4957
I2
aI5
aI4
aI0
aI1
atp4958
asba.