(lp1
ccopy_reg
_reconstructor
p2
(ctask
RegressionTask
p3
c__builtin__
object
p4
NtRp5
(dp6
S'examples'
p7
(lp8
(((lt(ltp9
a(((lp10
I11
aI4
at(lp11
I12
aI5
atp12
a(((lp13
I8
aI5
aI1
at(lp14
I9
aI6
aI2
atp15
a(((lp16
I16
at(lp17
I17
atp18
a(((lt(ltp19
a(((lp20
I16
aI4
at(lp21
I17
aI5
atp22
a(((lp23
I5
aI14
aI9
aI12
aI4
at(lp24
I6
aI15
aI10
aI13
aI5
atp25
a(((lp26
I3
at(lp27
I4
atp28
a(((lp29
I1
aI4
aI8
aI3
aI15
aI1
aI11
at(lp30
I2
aI5
aI9
aI4
aI16
aI2
aI12
atp31
a(((lp32
I5
aI5
aI16
aI12
aI9
aI10
at(lp33
I6
aI6
aI17
aI13
aI10
aI11
atp34
a(((lt(ltp35
a(((lt(ltp36
a(((lp37
I4
aI11
aI14
aI4
aI6
aI4
at(lp38
I5
aI12
aI15
aI5
aI7
aI5
atp39
asS'cache'
p40
I00
sS'request'
p41
g2
(ctype
TypeConstructor
p42
g4
NtRp43
(dp44
S'isPolymorphic'
p45
I00
sS'name'
p46
S'->'
p47
sS'arguments'
p48
(lp49
g2
(g42
g4
NtRp50
(dp51
g45
I00
sg46
S'list'
p52
sg48
(lp53
g2
(g42
g4
NtRp54
(dp55
g45
I00
sg46
S'int'
p56
sg48
(lp57
sbasbag2
(g42
g4
NtRp58
(dp59
g45
I00
sg46
g52
sg48
(lp60
g54
asbasbsS'features'
p61
(lp62
I0
aF7.8476190476190482
aF9
aF-1.4210854715202004e-14
aI1
asg46
Vadd-k with k=1
p63
sbag2
(g3
g4
NtRp64
(dp65
g7
(lp66
(((lp67
I4
aI2
aI8
aI16
aI16
at(lp68
I6
aI4
aI10
aI18
aI18
atp69
a(((lp70
I4
aI0
aI5
at(lp71
I6
aI2
aI7
atp72
a(((lp73
I0
aI14
aI7
aI0
aI13
aI5
aI4
at(lp74
I2
aI16
aI9
aI2
aI15
aI7
aI6
atp75
a(((lp76
I14
aI8
aI9
aI5
aI9
aI5
aI13
at(lp77
I16
aI10
aI11
aI7
aI11
aI7
aI15
atp78
a(((lp79
I11
aI2
aI5
aI15
aI4
aI4
at(lp80
I13
aI4
aI7
aI17
aI6
aI6
atp81
a(((lp82
I3
aI16
aI16
aI0
aI11
at(lp83
I5
aI18
aI18
aI2
aI13
atp84
a(((lp85
I2
aI2
aI0
aI4
aI4
aI14
at(lp86
I4
aI4
aI2
aI6
aI6
aI16
atp87
a(((lp88
I13
aI11
at(lp89
I15
aI13
atp90
a(((lp91
I7
aI16
aI7
aI10
at(lp92
I9
aI18
aI9
aI12
atp93
a(((lp94
I6
at(lp95
I8
atp96
a(((lp97
I8
aI10
aI8
aI11
at(lp98
I10
aI12
aI10
aI13
atp99
a(((lp100
I10
aI14
at(lp101
I12
aI16
atp102
a(((lp103
I14
aI16
aI16
aI11
aI11
aI14
at(lp104
I16
aI18
aI18
aI13
aI13
aI16
atp105
asg40
I00
sg41
g2
(g42
g4
NtRp106
(dp107
g45
I00
sg46
g47
sg48
(lp108
g2
(g42
g4
NtRp109
(dp110
g45
I00
sg46
g52
sg48
(lp111
g54
asbag2
(g42
g4
NtRp112
(dp113
g45
I00
sg46
g52
sg48
(lp114
g54
asbasbsg61
(lp115
I0
aF8.9119047619047631
aF26
aF1.4210854715202004e-14
aI1
asg46
Vadd-k with k=2
p116
sbag2
(g3
g4
NtRp117
(dp118
g7
(lp119
(((lp120
I7
aI5
aI11
at(lp121
I10
aI8
aI14
atp122
a(((lp123
I6
aI4
aI10
aI0
at(lp124
I9
aI7
aI13
aI3
atp125
a(((lp126
I10
aI15
aI4
aI12
at(lp127
I13
aI18
aI7
aI15
atp128
a(((lp129
I14
aI0
aI3
aI7
aI14
at(lp130
I17
aI3
aI6
aI10
aI17
atp131
a(((lp132
I15
aI14
aI4
aI13
at(lp133
I18
aI17
aI7
aI16
atp134
a(((lp135
I12
aI7
aI16
aI0
aI16
at(lp136
I15
aI10
aI19
aI3
aI19
atp137
a(((lt(ltp138
a(((lt(ltp139
a(((lp140
I11
at(lp141
I14
atp142
a(((lp143
I5
aI12
aI1
aI5
at(lp144
I8
aI15
aI4
aI8
atp145
a(((lp146
I13
aI6
aI13
aI3
aI15
aI3
aI14
at(lp147
I16
aI9
aI16
aI6
aI18
aI6
aI17
atp148
a(((lp149
I13
aI10
aI3
aI3
aI3
aI8
aI13
at(lp150
I16
aI13
aI6
aI6
aI6
aI11
aI16
atp151
a(((lp152
I2
aI13
at(lp153
I5
aI16
atp154
asg40
I00
sg41
g2
(g42
g4
NtRp155
(dp156
g45
I00
sg46
g47
sg48
(lp157
g2
(g42
g4
NtRp158
(dp159
g45
I00
sg46
g52
sg48
(lp160
g54
asbag2
(g42
g4
NtRp161
(dp162
g45
I00
sg46
g52
sg48
(lp163
g54
asbasbsg61
(lp164
I0
aF8.8999999999999986
aF33
aF0
aI1
asg46
Vadd-k with k=3
p165
sbag2
(g3
g4
NtRp166
(dp167
g7
(lp168
(((lp169
I16
aI7
aI14
aI15
aI8
at(lp170
I14
aI5
aI12
aI13
aI6
atp171
a(((lp172
I10
aI12
aI6
at(lp173
I8
aI10
aI4
atp174
a(((lp175
I6
aI13
aI12
aI13
at(lp176
I4
aI11
aI10
aI11
atp177
a(((lt(ltp178
a(((lp179
I6
aI1
aI13
aI10
aI4
aI14
at(lp180
I4
aI-1
aI11
aI8
aI2
aI12
atp181
a(((lp182
I7
aI7
aI1
aI14
aI3
aI5
aI3
at(lp183
I5
aI5
aI-1
aI12
aI1
aI3
aI1
atp184
a(((lp185
I5
aI12
aI13
aI7
aI7
aI5
aI8
at(lp186
I3
aI10
aI11
aI5
aI5
aI3
aI6
atp187
a(((lp188
I1
aI15
aI3
at(lp189
I-1
aI13
aI1
atp190
a(((lp191
I12
aI1
aI13
aI2
at(lp192
I10
aI-1
aI11
aI0
atp193
a(((lt(ltp194
a(((lp195
I4
aI1
aI14
aI11
aI12
aI6
aI7
at(lp196
I2
aI-1
aI12
aI9
aI10
aI4
aI5
atp197
a(((lp198
I0
at(lp199
I-2
atp200
a(((lt(ltp201
asg40
I00
sg41
g2
(g42
g4
NtRp202
(dp203
g45
I00
sg46
g47
sg48
(lp204
g2
(g42
g4
NtRp205
(dp206
g45
I00
sg46
g52
sg48
(lp207
g54
asbag2
(g42
g4
NtRp208
(dp209
g45
I00
sg46
g52
sg48
(lp210
g54
asbasbsg61
(lp211
I0
aF7.2880952380952388
aF-20
aF-1.4210854715202004e-14
aI1
asg46
Vadd-k with k=-2
p212
sbag2
(g3
g4
NtRp213
(dp214
g7
(lp215
(((lp216
I13
aI2
aI7
aI7
aI15
at(lp217
I21
aI10
aI15
aI15
aI23
atp218
a(((lp219
I6
aI9
aI6
at(lp220
I14
aI17
aI14
atp221
a(((lp222
I3
aI9
aI16
aI6
aI1
at(lp223
I11
aI17
aI24
aI14
aI9
atp224
a(((lp225
I13
aI0
aI8
aI0
aI13
aI15
at(lp226
I21
aI8
aI16
aI8
aI21
aI23
atp227
a(((lp228
I6
aI15
at(lp229
I14
aI23
atp230
a(((lp231
I2
aI15
aI14
aI12
aI3
aI16
aI10
at(lp232
I10
aI23
aI22
aI20
aI11
aI24
aI18
atp233
a(((lp234
I0
aI7
aI11
aI11
aI3
aI14
aI13
at(lp235
I8
aI15
aI19
aI19
aI11
aI22
aI21
atp236
a(((lt(ltp237
a(((lp238
I3
aI0
at(lp239
I11
aI8
atp240
a(((lp241
I14
aI3
aI10
at(lp242
I22
aI11
aI18
atp243
a(((lp244
I16
aI9
aI10
aI5
aI14
at(lp245
I24
aI17
aI18
aI13
aI22
atp246
a(((lp247
I3
aI8
aI14
aI5
aI8
aI1
aI1
at(lp248
I11
aI16
aI22
aI13
aI16
aI9
aI9
atp249
a(((lt(ltp250
asg40
I00
sg41
g2
(g42
g4
NtRp251
(dp252
g45
I00
sg46
g47
sg48
(lp253
g2
(g42
g4
NtRp254
(dp255
g45
I00
sg46
g52
sg48
(lp256
g54
asbag2
(g42
g4
NtRp257
(dp258
g45
I00
sg46
g52
sg48
(lp259
g54
asbasbsg61
(lp260
I0
aF8.8523809523809511
aF88
aF-5.6843418860808015e-14
aI1
asg46
Vadd-k with k=8
p261
sbag2
(g3
g4
NtRp262
(dp263
g7
(lp264
(((lp265
I16
aI7
aI9
aI11
aI4
aI0
at(lp266
I16
aI7
aI9
aI11
aI4
aI0
aI7
atp267
a(((lp268
I5
aI4
aI9
aI12
aI6
at(lp269
I5
aI4
aI9
aI12
aI6
aI4
atp270
a(((lp271
I12
aI5
aI4
aI0
at(lp272
I12
aI5
aI4
aI0
aI5
atp273
a(((lp274
I7
aI12
at(lp275
I7
aI12
aI12
atp276
a(((lp277
I7
aI16
aI14
aI7
aI2
aI9
aI1
at(lp278
I7
aI16
aI14
aI7
aI2
aI9
aI1
aI16
atp279
a(((lp280
I11
aI3
aI1
aI9
aI11
aI2
aI10
aI13
at(lp281
I11
aI3
aI1
aI9
aI11
aI2
aI10
aI13
aI3
atp282
a(((lp283
I3
aI16
aI13
aI9
at(lp284
I3
aI16
aI13
aI9
aI16
atp285
a(((lp286
I10
aI16
aI11
aI7
at(lp287
I10
aI16
aI11
aI7
aI16
atp288
a(((lp289
I10
aI1
aI3
aI7
aI13
aI10
aI2
aI6
at(lp290
I10
aI1
aI3
aI7
aI13
aI10
aI2
aI6
aI1
atp291
a(((lp292
I4
aI7
aI14
aI10
aI10
aI6
aI5
aI11
at(lp293
I4
aI7
aI14
aI10
aI10
aI6
aI5
aI11
aI7
atp294
a(((lp295
I14
aI3
aI15
aI16
aI3
aI8
aI16
aI7
at(lp296
I14
aI3
aI15
aI16
aI3
aI8
aI16
aI7
aI3
atp297
a(((lp298
I8
aI7
aI6
aI14
aI4
aI16
aI15
aI6
aI14
at(lp299
I8
aI7
aI6
aI14
aI4
aI16
aI15
aI6
aI14
aI7
atp300
a(((lp301
I13
aI1
aI7
aI4
aI10
aI7
aI15
aI1
aI2
at(lp302
I13
aI1
aI7
aI4
aI10
aI7
aI15
aI1
aI2
aI1
atp303
asg40
I00
sg41
g2
(g42
g4
NtRp304
(dp305
g45
I00
sg46
g47
sg48
(lp306
g2
(g42
g4
NtRp307
(dp308
g45
I00
sg46
g52
sg48
(lp309
g54
asbag2
(g42
g4
NtRp310
(dp311
g45
I00
sg46
g52
sg48
(lp312
g54
asbasbsg61
(lp313
I-13
aF0
aF0.34484126984126995
aF246.08690476190478
aI1
asg46
Vappend-index-k with k=2
p314
sbag2
(g3
g4
NtRp315
(dp316
g7
(lp317
(((lp318
I12
aI4
aI12
aI1
aI8
aI13
at(lp319
I12
aI4
aI12
aI1
aI8
aI13
aI12
atp320
a(((lp321
I3
aI9
aI14
aI16
aI12
aI11
at(lp322
I3
aI9
aI14
aI16
aI12
aI11
aI14
atp323
a(((lp324
I1
aI0
aI11
aI12
aI4
at(lp325
I1
aI0
aI11
aI12
aI4
aI11
atp326
a(((lp327
I2
aI1
aI15
aI8
aI2
aI5
at(lp328
I2
aI1
aI15
aI8
aI2
aI5
aI15
atp329
a(((lp330
I6
aI3
aI2
aI0
at(lp331
I6
aI3
aI2
aI0
aI2
atp332
a(((lp333
I10
aI1
aI10
aI4
aI1
aI8
aI5
aI5
aI3
at(lp334
I10
aI1
aI10
aI4
aI1
aI8
aI5
aI5
aI3
aI10
atp335
a(((lp336
I5
aI7
aI5
aI7
aI13
aI6
aI16
at(lp337
I5
aI7
aI5
aI7
aI13
aI6
aI16
aI5
atp338
a(((lp339
I5
aI9
aI10
aI5
aI14
aI1
at(lp340
I5
aI9
aI10
aI5
aI14
aI1
aI10
atp341
a(((lp342
I16
aI13
aI7
aI14
aI14
aI16
aI16
at(lp343
I16
aI13
aI7
aI14
aI14
aI16
aI16
aI7
atp344
a(((lp345
I6
aI8
aI4
aI7
aI8
at(lp346
I6
aI8
aI4
aI7
aI8
aI4
atp347
a(((lp348
I6
aI0
aI13
aI5
aI10
at(lp349
I6
aI0
aI13
aI5
aI10
aI13
atp350
a(((lp351
I8
aI5
aI16
aI11
aI5
at(lp352
I8
aI5
aI16
aI11
aI5
aI16
atp353
a(((lp354
I12
aI1
aI6
at(lp355
I12
aI1
aI6
aI6
atp356
asg40
I00
sg41
g2
(g42
g4
NtRp357
(dp358
g45
I00
sg46
g47
sg48
(lp359
g2
(g42
g4
NtRp360
(dp361
g45
I00
sg46
g52
sg48
(lp362
g54
asbag2
(g42
g4
NtRp363
(dp364
g45
I00
sg46
g52
sg48
(lp365
g54
asbasbsg61
(lp366
I-13
aF0
aF4.3575396825396835
aF277.18134920634913
aI1
asg46
Vappend-index-k with k=3
p367
sbag2
(g3
g4
NtRp368
(dp369
g7
(lp370
(((lt(lp371
I2
atp372
a(((lp373
I16
at(lp374
I16
aI2
atp375
a(((lp376
I9
at(lp377
I9
aI2
atp378
a(((lp379
I10
aI12
aI6
aI16
aI14
aI4
at(lp380
I10
aI12
aI6
aI16
aI14
aI4
aI2
atp381
a(((lp382
I12
aI5
aI0
aI3
aI15
at(lp383
I12
aI5
aI0
aI3
aI15
aI2
atp384
a(((lp385
I0
at(lp386
I0
aI2
atp387
a(((lp388
I1
aI7
aI14
aI11
aI15
aI16
at(lp389
I1
aI7
aI14
aI11
aI15
aI16
aI2
atp390
a(((lp391
I15
aI13
aI12
aI7
aI2
aI14
at(lp392
I15
aI13
aI12
aI7
aI2
aI14
aI2
atp393
a(((lp394
I0
aI15
aI3
aI15
at(lp395
I0
aI15
aI3
aI15
aI2
atp396
a(((lp397
I5
aI10
aI15
at(lp398
I5
aI10
aI15
aI2
atp399
a(((lp400
I12
aI9
aI9
aI0
aI11
aI14
aI0
at(lp401
I12
aI9
aI9
aI0
aI11
aI14
aI0
aI2
atp402
a(((lp403
I4
aI3
aI3
at(lp404
I4
aI3
aI3
aI2
atp405
a(((lp406
I7
aI3
aI10
aI2
aI3
at(lp407
I7
aI3
aI10
aI2
aI3
aI2
atp408
asg40
I00
sg41
g2
(g42
g4
NtRp409
(dp410
g45
I00
sg46
g47
sg48
(lp411
g2
(g42
g4
NtRp412
(dp413
g45
I00
sg46
g52
sg48
(lp414
g54
asbag2
(g42
g4
NtRp415
(dp416
g45
I00
sg46
g52
sg48
(lp417
g54
asbasbsg61
(lp418
I-13
aF0
aF-16.791666666666664
aF449.26785714285705
aI1
asg46
Vappend-k with k=2
p419
sbag2
(g3
g4
NtRp420
(dp421
g7
(lp422
(((lp423
I13
aI13
aI14
aI2
aI1
at(lp424
I13
aI13
aI14
aI2
aI1
aI3
atp425
a(((lp426
I13
aI8
aI16
aI10
aI2
aI13
at(lp427
I13
aI8
aI16
aI10
aI2
aI13
aI3
atp428
a(((lp429
I6
at(lp430
I6
aI3
atp431
a(((lp432
I8
at(lp433
I8
aI3
atp434
a(((lp435
I14
aI6
aI5
aI1
at(lp436
I14
aI6
aI5
aI1
aI3
atp437
a(((lp438
I1
aI4
aI1
aI6
aI10
aI11
at(lp439
I1
aI4
aI1
aI6
aI10
aI11
aI3
atp440
a(((lp441
I7
aI2
aI3
aI3
at(lp442
I7
aI2
aI3
aI3
aI3
atp443
a(((lp444
I11
aI14
aI9
aI10
aI6
aI15
at(lp445
I11
aI14
aI9
aI10
aI6
aI15
aI3
atp446
a(((lp447
I11
aI0
at(lp448
I11
aI0
aI3
atp449
a(((lt(lp450
I3
atp451
a(((lp452
I0
at(lp453
I0
aI3
atp454
a(((lp455
I11
aI15
aI15
aI0
aI15
at(lp456
I11
aI15
aI15
aI0
aI15
aI3
atp457
a(((lp458
I16
aI16
aI15
aI10
aI15
aI0
aI12
at(lp459
I16
aI16
aI15
aI10
aI15
aI0
aI12
aI3
atp460
asg40
I00
sg41
g2
(g42
g4
NtRp461
(dp462
g45
I00
sg46
g47
sg48
(lp463
g2
(g42
g4
NtRp464
(dp465
g45
I00
sg46
g52
sg48
(lp466
g54
asbag2
(g42
g4
NtRp467
(dp468
g45
I00
sg46
g52
sg48
(lp469
g54
asbasbsg61
(lp470
I-13
aF0
aF-7.1321428571428545
aF293.00595238095241
aI1
asg46
Vappend-k with k=3
p471
sbag2
(g3
g4
NtRp472
(dp473
g7
(lp474
(((lp475
I5
at(lp476
I5
aI-2
atp477
a(((lp478
I14
aI0
aI9
at(lp479
I14
aI0
aI9
aI-2
atp480
a(((lp481
I14
aI6
aI7
aI11
aI16
at(lp482
I14
aI6
aI7
aI11
aI16
aI-2
atp483
a(((lp484
I16
aI3
aI16
aI6
aI11
aI13
aI8
at(lp485
I16
aI3
aI16
aI6
aI11
aI13
aI8
aI-2
atp486
a(((lp487
I2
aI9
aI13
aI2
aI0
at(lp488
I2
aI9
aI13
aI2
aI0
aI-2
atp489
a(((lp490
I7
aI8
at(lp491
I7
aI8
aI-2
atp492
a(((lp493
I10
aI14
aI5
aI0
aI8
at(lp494
I10
aI14
aI5
aI0
aI8
aI-2
atp495
a(((lp496
I11
aI7
aI3
aI11
aI8
aI9
at(lp497
I11
aI7
aI3
aI11
aI8
aI9
aI-2
atp498
a(((lp499
I4
aI3
aI2
at(lp500
I4
aI3
aI2
aI-2
atp501
a(((lp502
I3
at(lp503
I3
aI-2
atp504
a(((lp505
I5
aI9
aI1
aI4
aI5
at(lp506
I5
aI9
aI1
aI4
aI5
aI-2
atp507
a(((lt(lp508
I-2
atp509
a(((lp510
I7
aI13
aI6
aI5
aI16
aI0
aI16
at(lp511
I7
aI13
aI6
aI5
aI16
aI0
aI16
aI-2
atp512
asg40
I00
sg41
g2
(g42
g4
NtRp513
(dp514
g45
I00
sg46
g47
sg48
(lp515
g2
(g42
g4
NtRp516
(dp517
g45
I00
sg46
g52
sg48
(lp518
g54
asbag2
(g42
g4
NtRp519
(dp520
g45
I00
sg46
g52
sg48
(lp521
g54
asbasbsg61
(lp522
I-13
aF0
aF-25.24761904761905
aF807.53095238095239
aI1
asg46
Vappend-k with k=-2
p523
sbag2
(g3
g4
NtRp524
(dp525
g7
(lp526
(((lp527
I10
aI3
aI8
at(lp528
I10
aI3
aI8
aI9
atp529
a(((lp530
I3
aI8
at(lp531
I3
aI8
aI9
atp532
a(((lp533
I6
aI15
at(lp534
I6
aI15
aI9
atp535
a(((lp536
I4
aI5
aI9
at(lp537
I4
aI5
aI9
aI9
atp538
a(((lt(lp539
I9
atp540
a(((lp541
I10
aI0
aI3
aI12
aI0
aI0
aI10
at(lp542
I10
aI0
aI3
aI12
aI0
aI0
aI10
aI9
atp543
a(((lp544
I14
aI2
aI6
aI9
aI5
at(lp545
I14
aI2
aI6
aI9
aI5
aI9
atp546
a(((lp547
I0
at(lp548
I0
aI9
atp549
a(((lp550
I11
at(lp551
I11
aI9
atp552
a(((lp553
I12
aI5
aI3
aI16
aI3
aI4
at(lp554
I12
aI5
aI3
aI16
aI3
aI4
aI9
atp555
a(((lp556
I11
aI10
aI7
aI11
aI12
aI6
at(lp557
I11
aI10
aI7
aI11
aI12
aI6
aI9
atp558
a(((lp559
I14
aI12
aI13
at(lp560
I14
aI12
aI13
aI9
atp561
a(((lp562
I7
aI0
at(lp563
I7
aI0
aI9
atp564
asg40
I00
sg41
g2
(g42
g4
NtRp565
(dp566
g45
I00
sg46
g47
sg48
(lp567
g2
(g42
g4
NtRp568
(dp569
g45
I00
sg46
g52
sg48
(lp570
g54
asbag2
(g42
g4
NtRp571
(dp572
g45
I00
sg46
g52
sg48
(lp573
g54
asbasbsg61
(lp574
I-13
aF0
aF16.240476190476194
aF113.87857142857148
aI1
asg46
Vappend-k with k=9
p575
sbag2
(g3
g4
NtRp576
(dp577
g7
(lp578
(((lp579
I4
aI0
aI5
at(lp580
I6
aI2
aI0
atp581
a(((lp582
I3
at(lp583
I5
atp584
a(((lp585
I1
aI0
at(lp586
I3
aI2
atp587
a(((lp588
I0
aI0
aI4
at(lp589
I2
aI2
aI6
atp590
a(((lp591
I1
aI0
aI0
aI4
at(lp592
I3
aI2
aI2
aI6
atp593
a(((lp594
I1
aI6
aI3
aI6
aI1
aI3
aI4
at(lp595
I3
aI1
aI5
aI1
aI3
aI5
aI6
atp596
a(((lp597
I5
aI3
aI6
aI2
aI2
aI3
at(lp598
I0
aI5
aI1
aI4
aI4
aI5
atp599
a(((lp600
I2
at(lp601
I4
atp602
a(((lp603
I6
aI2
aI3
at(lp604
I1
aI4
aI5
atp605
a(((lt(ltp606
a(((lp607
I3
aI6
aI5
aI4
at(lp608
I5
aI1
aI0
aI6
atp609
a(((lp610
I5
aI6
aI3
aI0
aI5
at(lp611
I0
aI1
aI5
aI2
aI0
atp612
a(((lp613
I2
aI3
aI0
aI4
aI5
aI6
at(lp614
I4
aI5
aI2
aI6
aI0
aI1
atp615
asg40
I00
sg41
g2
(g42
g4
NtRp616
(dp617
g45
I00
sg46
g47
sg48
(lp618
g2
(g42
g4
NtRp619
(dp620
g45
I00
sg46
g52
sg48
(lp621
g54
asbag2
(g42
g4
NtRp622
(dp623
g45
I00
sg46
g52
sg48
(lp624
g54
asbasbsg61
(lp625
I0
aF7.7928571428571436
aF4.9666666666666668
aF32.066666666666663
aI1
asg46
Vcaesar-cipher-k-modulo-n with k=2 and n=7
p626
sbag2
(g3
g4
NtRp627
(dp628
g7
(lp629
(((lp630
I0
aI0
aI0
aI0
aI0
aI0
aI0
at(lp631
I0
aI0
aI0
aI0
aI0
aI0
aI0
atp632
a(((lp633
I0
aI0
aI0
at(lp634
I0
aI0
aI0
atp635
a(((lp636
I0
aI0
aI0
at(lp637
I0
aI0
aI0
atp638
a(((lp639
I0
aI0
aI0
aI0
aI0
aI0
at(lp640
I0
aI0
aI0
aI0
aI0
aI0
atp641
a(((lp642
I0
aI0
aI0
aI0
aI0
aI0
aI0
at(lp643
I0
aI0
aI0
aI0
aI0
aI0
aI0
atp644
a(((lp645
I0
aI0
aI0
aI0
aI0
aI0
aI0
at(lp646
I0
aI0
aI0
aI0
aI0
aI0
aI0
atp647
a(((lp648
I0
aI0
aI0
aI0
aI0
aI0
at(lp649
I0
aI0
aI0
aI0
aI0
aI0
atp650
a(((lt(ltp651
a(((lp652
I0
aI0
aI0
aI0
at(lp653
I0
aI0
aI0
aI0
atp654
a(((lp655
I0
aI0
aI0
aI0
aI0
aI0
aI0
at(lp656
I0
aI0
aI0
aI0
aI0
aI0
aI0
atp657
a(((lp658
I0
aI0
aI0
aI0
at(lp659
I0
aI0
aI0
aI0
atp660
a(((lt(ltp661
a(((lp662
I0
aI0
aI0
aI0
aI0
aI0
at(lp663
I0
aI0
aI0
aI0
aI0
aI0
atp664
asg40
I00
sg41
g2
(g42
g4
NtRp665
(dp666
g45
I00
sg46
g47
sg48
(lp667
g2
(g42
g4
NtRp668
(dp669
g45
I00
sg46
g52
sg48
(lp670
g54
asbag2
(g42
g4
NtRp671
(dp672
g45
I00
sg46
g52
sg48
(lp673
g54
asbasbsg61
(lp674
I0
aF0
aF0
aF0
aI1
asg46
Vcaesar-cipher-k-modulo-n with k=1 and n=1
p675
sbag2
(g3
g4
NtRp676
(dp677
g7
(lp678
(((lp679
I6
aI1
aI3
at(lp680
I1
aI4
aI6
atp681
a(((lt(ltp682
a(((lp683
I6
aI7
aI4
aI6
aI1
aI4
aI7
at(lp684
I1
aI2
aI7
aI1
aI4
aI7
aI2
atp685
a(((lp686
I7
aI2
at(lp687
I2
aI5
atp688
a(((lp689
I3
aI4
at(lp690
I6
aI7
atp691
a(((lp692
I5
aI1
aI1
aI6
at(lp693
I0
aI4
aI4
aI1
atp694
a(((lp695
I4
aI7
aI0
aI2
at(lp696
I7
aI2
aI3
aI5
atp697
a(((lp698
I7
aI5
at(lp699
I2
aI0
atp700
a(((lp701
I5
aI1
aI5
at(lp702
I0
aI4
aI0
atp703
a(((lp704
I3
aI6
aI0
aI3
aI6
at(lp705
I6
aI1
aI3
aI6
aI1
atp706
a(((lt(ltp707
a(((lp708
I3
aI6
aI2
aI4
aI1
aI5
aI6
at(lp709
I6
aI1
aI5
aI7
aI4
aI0
aI1
atp710
a(((lp711
I3
aI6
aI5
aI5
at(lp712
I6
aI1
aI0
aI0
atp713
asg40
I00
sg41
g2
(g42
g4
NtRp714
(dp715
g45
I00
sg46
g47
sg48
(lp716
g2
(g42
g4
NtRp717
(dp718
g45
I00
sg46
g52
sg48
(lp719
g54
asbag2
(g42
g4
NtRp720
(dp721
g45
I00
sg46
g52
sg48
(lp722
g54
asbasbsg61
(lp723
I0
aF5.628571428571429
aF-10.200000000000001
aF28.571428571428562
aI1
asg46
Vcaesar-cipher-k-modulo-n with k=3 and n=8
p724
sbag2
(g3
g4
NtRp725
(dp726
g7
(lp727
(((lp728
I2
aI6
aI6
aI2
aI4
at(lp729
I6
aI3
aI3
aI6
aI1
atp730
a(((lp731
I3
aI4
aI3
aI1
aI1
aI4
at(lp732
I0
aI1
aI0
aI5
aI5
aI1
atp733
a(((lp734
I3
aI5
aI6
aI3
aI3
at(lp735
I0
aI2
aI3
aI0
aI0
atp736
a(((lp737
I1
aI3
aI2
aI5
aI6
at(lp738
I5
aI0
aI6
aI2
aI3
atp739
a(((lp740
I2
aI5
aI6
at(lp741
I6
aI2
aI3
atp742
a(((lp743
I5
aI6
aI5
aI3
aI4
aI3
at(lp744
I2
aI3
aI2
aI0
aI1
aI0
atp745
a(((lp746
I4
aI3
aI2
aI6
aI6
at(lp747
I1
aI0
aI6
aI3
aI3
atp748
a(((lt(ltp749
a(((lp750
I4
aI6
aI1
aI4
at(lp751
I1
aI3
aI5
aI1
atp752
a(((lp753
I5
aI4
aI0
aI4
aI0
aI1
at(lp754
I2
aI1
aI4
aI1
aI4
aI5
atp755
a(((lp756
I0
aI6
aI6
at(lp757
I4
aI3
aI3
atp758
a(((lp759
I3
aI6
aI4
aI5
aI5
at(lp760
I0
aI3
aI1
aI2
aI2
atp761
a(((lp762
I5
aI5
aI5
aI3
aI4
aI4
at(lp763
I2
aI2
aI2
aI0
aI1
aI1
atp764
asg40
I00
sg41
g2
(g42
g4
NtRp765
(dp766
g45
I00
sg46
g47
sg48
(lp767
g2
(g42
g4
NtRp768
(dp769
g45
I00
sg46
g52
sg48
(lp770
g54
asbag2
(g42
g4
NtRp771
(dp772
g45
I00
sg46
g52
sg48
(lp773
g54
asbasbsg61
(lp774
I0
aF4.9999999999999991
aF-16.75
aF-0.11666666666667203
aI1
asg46
Vcaesar-cipher-k-modulo-n with k=4 and n=7
p775
sbag2
(g3
g4
NtRp776
(dp777
g7
(lp778
(((lp779
I1
aI1
aI2
atI1
tp780
a(((lp781
I1
aI2
aI3
atI0
tp782
a(((lp783
I2
aI1
aI2
atI1
tp784
a(((lp785
I2
aI3
aI4
atI0
tp786
a(((lp787
I0
aI5
aI4
aI0
aI2
atI1
tp788
a(((lp789
I3
aI1
aI3
aI3
aI2
atI2
tp790
a(((lp791
I4
aI2
aI6
aI10
aI8
aI12
atI0
tp792
a(((lp793
I11
aI1
aI9
aI2
atI0
tp794
a(((lp795
I6
aI11
aI6
aI10
aI6
atI2
tp796
a(((lp797
I5
aI5
aI6
aI14
aI5
aI5
aI5
atI4
tp798
a(((lp799
I16
aI15
aI13
aI4
aI13
atI0
tp800
a(((lp801
I7
aI9
atI0
tp802
a(((lp803
I11
atI0
tp804
asg40
I00
sg41
g2
(g42
g4
NtRp805
(dp806
g45
I00
sg46
g47
sg48
(lp807
g2
(g42
g4
NtRp808
(dp809
g45
I00
sg46
g52
sg48
(lp810
g54
asbag54
asbsg61
(lp811
I52
aF9.6952380952380963
aF-59.778571428571425
aF359.39761904761906
aI0
asg46
Vcount-head-in-tail
p812
sbag2
(g3
g4
NtRp813
(dp814
g7
(lp815
(((lp816
I8
aI11
aI16
aI8
aI11
aI0
aI1
atI0
tp817
a(((lp818
I2
aI2
aI8
atI2
tp819
a(((lp820
I2
aI2
aI16
aI2
aI12
atI3
tp821
a(((lp822
I7
aI5
aI9
aI6
aI2
atI1
tp823
a(((lp824
I2
aI2
aI2
aI2
atI4
tp825
a(((lp826
I16
aI10
aI8
aI8
aI9
atI0
tp827
a(((lp828
I1
aI2
aI2
aI2
aI2
atI4
tp829
a(((lp830
I10
aI14
aI2
aI2
atI2
tp831
a(((lp832
I2
aI2
aI1
aI1
atI2
tp833
a(((lp834
I2
aI2
aI2
aI2
atI4
tp835
a(((lp836
I2
aI13
aI5
atI1
tp837
a(((lp838
I2
aI2
aI2
aI2
aI2
aI13
atI5
tp839
a(((lp840
I8
aI15
aI4
aI11
aI11
aI8
aI0
atI0
tp841
asg40
I00
sg41
g2
(g42
g4
NtRp842
(dp843
g45
I00
sg46
g47
sg48
(lp844
g2
(g42
g4
NtRp845
(dp846
g45
I00
sg46
g52
sg48
(lp847
g54
asbag54
asbsg61
(lp848
I62
aF6.8595238095238082
aF-39.600000000000001
aF893.41428571428571
aI0
asg46
Vcount-k with k=2
p849
sbag2
(g3
g4
NtRp850
(dp851
g7
(lp852
(((lp853
I3
aI3
aI3
aI3
aI3
aI3
aI3
atI7
tp854
a(((lp855
I9
aI1
aI6
aI5
aI0
atI0
tp856
a(((lp857
I3
aI3
aI3
aI3
atI4
tp858
a(((lp859
I5
aI4
atI0
tp860
a(((lp861
I14
aI3
aI11
aI12
aI1
aI16
aI3
atI2
tp862
a(((lp863
I16
atI0
tp864
a(((lp865
I0
aI3
aI2
aI11
aI10
aI3
atI2
tp866
a(((lp867
I12
aI16
atI0
tp868
a(((lp869
I3
atI1
tp870
a(((ltI0
tp871
a(((lp872
I3
aI3
aI1
aI3
atI3
tp873
a(((lp874
I3
aI16
aI3
aI3
aI5
aI3
aI11
atI4
tp875
a(((lp876
I3
aI3
aI3
aI3
aI3
atI5
tp877
asg40
I00
sg41
g2
(g42
g4
NtRp878
(dp879
g45
I00
sg46
g47
sg48
(lp880
g2
(g42
g4
NtRp881
(dp882
g45
I00
sg46
g52
sg48
(lp883
g54
asbag54
asbsg61
(lp884
I51
aF7.738095238095239
aF-44.890476190476186
aF552.27619047619055
aI0
asg46
Vcount-k with k=3
p885
sbag2
(g3
g4
NtRp886
(dp887
g7
(lp888
(((ltI0
tp889
a(((lp890
I1
aI1
aI13
aI1
aI1
aI1
atI5
tp891
a(((lp892
I1
aI1
aI11
aI1
aI1
atI4
tp893
a(((lp894
I7
aI1
aI1
aI1
aI1
atI4
tp895
a(((lp896
I1
atI1
tp897
a(((lp898
I1
aI1
aI1
atI3
tp899
a(((ltI0
tp900
a(((lp901
I10
aI6
aI0
atI0
tp902
a(((lp903
I2
aI1
aI15
aI7
aI14
atI1
tp904
a(((lp905
I1
atI1
tp906
a(((lp907
I14
aI2
aI10
aI4
aI5
aI12
aI1
atI1
tp908
a(((lp909
I4
aI10
aI16
aI9
aI1
aI6
atI1
tp910
a(((lp911
I1
aI1
aI1
aI1
aI1
aI1
atI6
tp912
asg40
I00
sg41
g2
(g42
g4
NtRp913
(dp914
g45
I00
sg46
g47
sg48
(lp915
g2
(g42
g4
NtRp916
(dp917
g45
I00
sg46
g52
sg48
(lp918
g54
asbag54
asbsg61
(lp919
I48
aF4.7904761904761912
aF-12.857142857142858
aF744.4571428571428
aI0
asg46
Vcount-k with k=1
p920
sbag2
(g3
g4
NtRp921
(dp922
g7
(lp923
(((lp924
I1
aI1
aI1
at(lp925
I1
atp926
a(((lp927
I2
aI5
aI4
aI2
aI2
aI0
aI5
aI1
aI1
at(lp928
I2
aI5
aI4
aI2
aI0
aI5
aI1
atp929
a(((lp930
I10
aI15
aI16
aI3
aI9
aI10
at(lp931
I10
aI15
aI16
aI3
aI9
aI10
atp932
a(((lt(ltp933
a(((lt(ltp934
a(((lp935
I1
aI15
aI13
aI9
at(lp936
I1
aI15
aI13
aI9
atp937
a(((lp938
I11
at(lp939
I11
atp940
a(((lp941
I1
at(lp942
I1
atp943
a(((lp944
I10
at(lp945
I10
atp946
a(((lp947
I4
at(lp948
I4
atp949
a(((lt(ltp950
a(((lp951
I8
aI9
aI10
aI1
at(lp952
I8
aI9
aI10
aI1
atp953
a(((lp954
I7
aI13
aI7
aI2
aI11
aI2
at(lp955
I7
aI13
aI7
aI2
aI11
aI2
atp956
asg40
I00
sg41
g2
(g42
g4
NtRp957
(dp958
g45
I00
sg46
g47
sg48
(lp959
g2
(g42
g4
NtRp960
(dp961
g45
I00
sg46
g52
sg48
(lp962
g54
asbag2
(g42
g4
NtRp963
(dp964
g45
I00
sg46
g52
sg48
(lp965
g54
asbasbsg61
(lp966
I4
aF0
aF0.26984126984126977
aF-2.7936507936507979
aI1
asg46
Vdedup
p967
sbag2
(g3
g4
NtRp968
(dp969
g7
(lp970
(((lp971
I6
aI1
aI10
aI9
aI4
aI3
aI12
at(lp972
I10
aI9
aI4
aI3
aI12
atp973
a(((lp974
I7
aI5
at(ltp975
a(((lp976
I2
aI13
aI15
aI1
at(lp977
I15
aI1
atp978
a(((lp979
I14
aI8
aI3
at(lp980
I3
atp981
a(((lp982
I2
aI5
aI7
aI4
aI4
at(lp983
I7
aI4
aI4
atp984
a(((lp985
I10
aI2
at(ltp986
a(((lp987
I11
aI10
aI4
at(lp988
I4
atp989
a(((lp990
I10
aI7
aI9
at(lp991
I9
atp992
a(((lp993
I13
aI3
at(ltp994
a(((lp995
I0
aI10
aI12
aI10
aI7
aI1
at(lp996
I12
aI10
aI7
aI1
atp997
a(((lp998
I2
aI1
aI2
aI10
aI10
aI3
aI8
aI12
aI6
at(lp999
I2
aI10
aI10
aI3
aI8
aI12
aI6
atp1000
a(((lp1001
I1
aI11
at(ltp1002
a(((lp1003
I7
aI15
aI0
aI16
aI10
aI16
aI13
aI13
aI4
at(lp1004
I0
aI16
aI10
aI16
aI13
aI13
aI4
atp1005
asg40
I00
sg41
g2
(g42
g4
NtRp1006
(dp1007
g45
I00
sg46
g47
sg48
(lp1008
g2
(g42
g4
NtRp1009
(dp1010
g45
I00
sg46
g52
sg48
(lp1011
g54
asbag2
(g42
g4
NtRp1012
(dp1013
g45
I00
sg46
g52
sg48
(lp1014
g54
asbasbsg61
(lp1015
I26
aF7.6857142857142859
aF-31.351587301587305
aF-476.16269841269838
aI1
asg46
Vdrop-k with k=2
p1016
sbag2
(g3
g4
NtRp1017
(dp1018
g7
(lp1019
(((lp1020
I4
aI15
aI4
aI3
at(lp1021
I3
atp1022
a(((lp1023
I8
aI11
aI15
aI16
aI8
aI12
at(lp1024
I16
aI8
aI12
atp1025
a(((lp1026
I9
aI5
aI14
aI10
aI12
at(lp1027
I10
aI12
atp1028
a(((lp1029
I10
aI0
aI15
aI11
at(lp1030
I11
atp1031
a(((lp1032
I16
aI4
aI9
aI1
aI8
at(lp1033
I1
aI8
atp1034
a(((lp1035
I0
aI6
aI11
aI15
aI15
aI10
aI6
aI1
aI9
aI0
at(lp1036
I15
aI15
aI10
aI6
aI1
aI9
aI0
atp1037
a(((lp1038
I10
aI10
aI9
aI16
at(lp1039
I16
atp1040
a(((lp1041
I0
aI6
aI4
aI0
aI6
aI12
at(lp1042
I0
aI6
aI12
atp1043
a(((lp1044
I5
aI11
aI9
aI16
aI5
aI14
aI3
aI6
aI11
aI11
at(lp1045
I16
aI5
aI14
aI3
aI6
aI11
aI11
atp1046
a(((lp1047
I16
aI8
aI11
aI16
at(lp1048
I16
atp1049
a(((lp1050
I7
aI3
aI0
aI1
aI15
aI11
aI1
aI2
at(lp1051
I1
aI15
aI11
aI1
aI2
atp1052
a(((lp1053
I2
aI10
aI15
aI11
at(lp1054
I11
atp1055
a(((lp1056
I6
aI15
aI15
aI4
at(lp1057
I4
atp1058
asg40
I00
sg41
g2
(g42
g4
NtRp1059
(dp1060
g45
I00
sg46
g47
sg48
(lp1061
g2
(g42
g4
NtRp1062
(dp1063
g45
I00
sg46
g52
sg48
(lp1064
g54
asbag2
(g42
g4
NtRp1065
(dp1066
g45
I00
sg46
g52
sg48
(lp1067
g54
asbasbsg61
(lp1068
I39
aF5.7750000000000004
aF3.5952380952380967
aF-822.15238095238101
aI1
asg46
Vdrop-k with k=3
p1069
sbag2
(g3
g4
NtRp1070
(dp1071
g7
(lp1072
(((lp1073
I12
aI8
aI3
aI9
aI2
aI2
aI13
aI9
at(lp1074
I2
aI13
aI9
atp1075
a(((lp1076
I0
aI5
aI7
aI1
aI4
aI10
at(lp1077
I10
atp1078
a(((lp1079
I8
aI7
aI14
aI2
aI2
aI9
aI12
aI12
aI9
aI12
at(lp1080
I9
aI12
aI12
aI9
aI12
atp1081
a(((lp1082
I6
aI15
aI6
aI14
aI9
aI0
aI0
at(lp1083
I0
aI0
atp1084
a(((lp1085
I2
aI13
aI12
aI9
aI1
at(ltp1086
a(((lp1087
I0
aI7
aI13
aI14
aI3
aI7
aI0
at(lp1088
I7
aI0
atp1089
a(((lp1090
I3
aI3
aI9
aI6
aI10
aI1
aI16
aI16
aI14
aI1
at(lp1091
I1
aI16
aI16
aI14
aI1
atp1092
a(((lp1093
I1
aI7
aI2
aI12
aI6
aI12
aI12
at(lp1094
I12
aI12
atp1095
a(((lp1096
I9
aI8
aI5
aI9
aI7
at(ltp1097
a(((lp1098
I7
aI10
aI6
aI5
aI11
at(ltp1099
a(((lp1100
I6
aI2
aI14
aI8
aI4
aI11
aI12
at(lp1101
I11
aI12
atp1102
a(((lp1103
I3
aI4
aI4
aI7
aI14
aI15
aI1
aI12
aI7
aI15
at(lp1104
I15
aI1
aI12
aI7
aI15
atp1105
a(((lp1106
I7
aI12
aI0
aI0
aI2
aI6
aI14
aI16
aI11
aI12
aI6
at(lp1107
I6
aI14
aI16
aI11
aI12
aI6
atp1108
asg40
I00
sg41
g2
(g42
g4
NtRp1109
(dp1110
g45
I00
sg46
g47
sg48
(lp1111
g2
(g42
g4
NtRp1112
(dp1113
g45
I00
sg46
g52
sg48
(lp1114
g54
asbag2
(g42
g4
NtRp1115
(dp1116
g45
I00
sg46
g52
sg48
(lp1117
g54
asbasbsg61
(lp1118
I65
aF7.6667748917748906
aF-9.9348484848484837
aF-1503.4601731601731
aI1
asg46
Vdrop-k with k=5
p1119
sbag2
(g3
g4
NtRp1120
(dp1121
g7
(lp1122
(((lp1123
I0
at(lp1124
I0
aI0
atp1125
a(((lp1126
I7
aI2
aI4
at(lp1127
I7
aI7
aI2
aI2
aI4
aI4
atp1128
a(((lp1129
I0
aI3
aI6
aI15
at(lp1130
I0
aI0
aI3
aI3
aI6
aI6
aI15
aI15
atp1131
a(((lp1132
I7
at(lp1133
I7
aI7
atp1134
a(((lp1135
I6
aI14
aI0
aI11
aI4
aI10
at(lp1136
I6
aI6
aI14
aI14
aI0
aI0
aI11
aI11
aI4
aI4
aI10
aI10
atp1137
a(((lt(ltp1138
a(((lp1139
I10
aI0
at(lp1140
I10
aI10
aI0
aI0
atp1141
a(((lp1142
I3
aI8
aI12
aI8
aI6
aI11
at(lp1143
I3
aI3
aI8
aI8
aI12
aI12
aI8
aI8
aI6
aI6
aI11
aI11
atp1144
a(((lt(ltp1145
a(((lp1146
I1
aI2
aI0
aI1
aI12
aI7
aI1
at(lp1147
I1
aI1
aI2
aI2
aI0
aI0
aI1
aI1
aI12
aI12
aI7
aI7
aI1
aI1
atp1148
a(((lp1149
I11
aI2
aI0
aI0
aI7
aI10
aI0
at(lp1150
I11
aI11
aI2
aI2
aI0
aI0
aI0
aI0
aI7
aI7
aI10
aI10
aI0
aI0
atp1151
a(((lt(ltp1152
a(((lp1153
I9
aI13
aI4
aI7
aI14
aI4
at(lp1154
I9
aI9
aI13
aI13
aI4
aI4
aI7
aI7
aI14
aI14
aI4
aI4
atp1155
asg40
I00
sg41
g2
(g42
g4
NtRp1156
(dp1157
g45
I00
sg46
g47
sg48
(lp1158
g2
(g42
g4
NtRp1159
(dp1160
g45
I00
sg46
g52
sg48
(lp1161
g54
asbag2
(g42
g4
NtRp1162
(dp1163
g45
I00
sg46
g52
sg48
(lp1164
g54
asbasbsg61
(lp1165
I-43
aF0
aF0
aF730.80952380952363
aI1
asg46
Vdup
p1166
sbag2
(g3
g4
NtRp1167
(dp1168
g7
(lp1169
(((lp1170
I1
aI2
aI3
atI00
tp1171
a(((ltI01
tp1172
a(((lp1173
I0
atI00
tp1174
a(((lp1175
I1
aI1
aI2
aI1
atI00
tp1176
a(((ltI01
tp1177
a(((ltI01
tp1178
a(((ltI01
tp1179
a(((lp1180
I4
aI14
aI13
atI00
tp1181
a(((ltI01
tp1182
a(((lp1183
I6
aI15
aI5
aI1
aI4
aI14
aI8
atI00
tp1184
a(((lp1185
I0
aI15
aI8
atI00
tp1186
a(((ltI01
tp1187
a(((ltI01
tp1188
asg40
I00
sg41
g2
(g42
g4
NtRp1189
(dp1190
g45
I00
sg46
g47
sg48
(lp1191
g2
(g42
g4
NtRp1192
(dp1193
g45
I00
sg46
g52
sg48
(lp1194
g54
asbag2
(g42
g4
NtRp1195
(dp1196
g45
I00
sg46
S'bool'
p1197
sg48
(lp1198
sbasbsg61
(lp1199
I21
aI0
aF28.821428571428573
aF337.79761904761904
aI-1
asg46
Vempty
p1200
sbag2
(g3
g4
NtRp1201
(dp1202
g7
(lp1203
(((lp1204
I2
aI0
aI4
at(lp1205
I2
aI0
aI4
atp1206
a(((lp1207
I2
aI5
aI4
aI2
aI0
aI5
aI1
aI1
at(lp1208
I2
aI4
aI2
aI0
atp1209
a(((lp1210
I9
aI4
aI5
at(lp1211
I4
atp1212
a(((lp1213
I9
aI12
aI1
aI1
aI14
aI2
at(lp1214
I12
aI14
aI2
atp1215
a(((lp1216
I14
at(lp1217
I14
atp1218
a(((lp1219
I10
at(lp1220
I10
atp1221
a(((lp1222
I9
aI13
aI9
aI4
aI9
aI1
aI1
at(lp1223
I4
atp1224
a(((lp1225
I8
aI3
aI7
aI2
at(lp1226
I8
aI2
atp1227
a(((lp1228
I12
aI1
aI7
aI12
aI11
at(lp1229
I12
aI12
atp1230
a(((lp1231
I15
aI13
aI2
aI4
at(lp1232
I2
aI4
atp1233
a(((lp1234
I15
aI16
aI16
aI11
aI1
aI5
aI12
at(lp1235
I16
aI16
aI12
atp1236
a(((lp1237
I3
aI3
aI1
at(ltp1238
a(((lp1239
I12
aI12
at(lp1240
I12
aI12
atp1241
asg40
I00
sg41
g2
(g42
g4
NtRp1242
(dp1243
g45
I00
sg46
g47
sg48
(lp1244
g2
(g42
g4
NtRp1245
(dp1246
g45
I00
sg46
g52
sg48
(lp1247
g54
asbag2
(g42
g4
NtRp1248
(dp1249
g45
I00
sg46
g52
sg48
(lp1250
g54
asbasbsg61
(lp1251
I29
aF4.5166666666666675
aF-2.861904761904762
aF-665.60476190476186
aI1
asg46
Vevens
p1252
sbag2
(g3
g4
NtRp1253
(dp1254
g7
(lp1255
(((lp1256
I1
aI1
aI2
atI01
tp1257
a(((lp1258
I1
aI2
aI3
atI00
tp1259
a(((lp1260
I2
aI1
aI2
atI01
tp1261
a(((lp1262
I2
aI3
aI4
atI00
tp1263
a(((lp1264
I3
aI1
aI3
aI4
aI2
atI01
tp1265
a(((lp1266
I4
aI2
aI6
aI10
aI8
aI12
atI00
tp1267
a(((lp1268
I13
aI13
aI13
aI13
aI13
aI13
aI13
atI01
tp1269
a(((lp1270
I0
aI10
atI00
tp1271
a(((lp1272
I12
aI2
aI6
aI10
aI11
atI00
tp1273
a(((lp1274
I4
aI0
aI16
aI10
atI00
tp1275
a(((lp1276
I10
aI4
aI0
aI8
aI0
aI6
atI00
tp1277
a(((lp1278
I10
aI10
aI15
aI3
aI12
atI01
tp1279
a(((lp1280
I11
aI11
aI11
aI11
aI11
aI11
aI7
atI01
tp1281
asg40
I00
sg41
g2
(g42
g4
NtRp1282
(dp1283
g45
I00
sg46
g47
sg48
(lp1284
g2
(g42
g4
NtRp1285
(dp1286
g45
I00
sg46
g52
sg48
(lp1287
g54
asbag1195
asbsg61
(lp1288
I59
aI0
aF76.395238095238099
aF523.38095238095229
aI-1
asg46
Vhas-head-in-tail
p1289
sbag2
(g3
g4
NtRp1290
(dp1291
g7
(lp1292
(((lp1293
I2
aI12
aI8
aI0
atI01
tp1294
a(((lp1295
I13
atI00
tp1296
a(((lp1297
I15
atI00
tp1298
a(((lp1299
I8
aI13
aI14
aI7
aI5
aI2
atI01
tp1300
a(((lp1301
I5
aI3
aI10
atI00
tp1302
a(((lp1303
I2
aI2
aI2
atI01
tp1304
a(((lp1305
I2
aI4
aI2
aI5
aI8
aI9
aI2
atI01
tp1306
a(((ltI00
tp1307
a(((ltI00
tp1308
a(((lp1309
I5
aI15
aI2
atI01
tp1310
a(((lp1311
I3
aI5
aI5
atI00
tp1312
a(((lp1313
I10
aI1
aI2
aI2
aI12
aI8
atI01
tp1314
a(((lp1315
I2
atI01
tp1316
asg40
I00
sg41
g2
(g42
g4
NtRp1317
(dp1318
g45
I00
sg46
g47
sg48
(lp1319
g2
(g42
g4
NtRp1320
(dp1321
g45
I00
sg46
g52
sg48
(lp1322
g54
asbag1195
asbsg61
(lp1323
I38
aI0
aF73.738095238095227
aF483.71428571428572
aI-1
asg46
Vhas-k with k=2
p1324
sbag2
(g3
g4
NtRp1325
(dp1326
g7
(lp1327
(((lp1328
I3
aI3
aI3
aI3
aI3
atI01
tp1329
a(((lp1330
I13
aI3
aI4
atI01
tp1331
a(((lp1332
I11
aI1
aI15
aI2
atI00
tp1333
a(((lp1334
I7
atI00
tp1335
a(((lp1336
I8
aI1
aI0
aI14
aI3
aI6
atI01
tp1337
a(((lp1338
I6
aI3
aI8
aI3
aI3
aI3
aI3
atI01
tp1339
a(((lp1340
I3
aI1
atI01
tp1341
a(((lp1342
I4
aI3
atI01
tp1343
a(((ltI00
tp1344
a(((ltI00
tp1345
a(((lp1346
I15
aI2
aI16
atI00
tp1347
a(((lp1348
I9
aI7
aI15
aI13
atI00
tp1349
a(((lp1350
I3
aI8
aI3
aI3
atI01
tp1351
asg40
I00
sg41
g2
(g42
g4
NtRp1352
(dp1353
g45
I00
sg46
g47
sg48
(lp1354
g2
(g42
g4
NtRp1355
(dp1356
g45
I00
sg46
g52
sg48
(lp1357
g54
asbag1195
asbsg61
(lp1358
I41
aI0
aF65.142857142857139
aF544.85714285714289
aI-1
asg46
Vhas-k with k=3
p1359
sbag2
(g3
g4
NtRp1360
(dp1361
g7
(lp1362
(((lp1363
I6
aI5
aI4
aI8
aI4
aI12
atI00
tp1364
a(((lp1365
I14
aI14
aI8
aI4
atI00
tp1366
a(((lp1367
I5
atI00
tp1368
a(((lp1369
I7
aI7
aI7
aI7
aI7
atI01
tp1370
a(((lp1371
I15
atI00
tp1372
a(((lp1373
I7
aI7
aI7
aI7
aI7
atI01
tp1374
a(((lp1375
I7
aI10
aI5
aI6
aI14
aI8
aI6
atI01
tp1376
a(((lp1377
I12
aI6
aI11
atI00
tp1378
a(((lp1379
I7
aI7
aI11
aI7
aI7
aI7
atI01
tp1380
a(((lp1381
I11
aI1
aI13
aI11
aI10
aI2
aI11
atI00
tp1382
a(((lp1383
I7
aI7
atI01
tp1384
a(((ltI00
tp1385
a(((ltI00
tp1386
asg40
I00
sg41
g2
(g42
g4
NtRp1387
(dp1388
g45
I00
sg46
g47
sg48
(lp1389
g2
(g42
g4
NtRp1390
(dp1391
g45
I00
sg46
g52
sg48
(lp1392
g54
asbag1195
asbsg61
(lp1393
I47
aI0
aF91.261904761904773
aF351.21428571428572
aI-1
asg46
Vhas-k with k=7
p1394
sbag2
(g3
g4
NtRp1395
(dp1396
g7
(lp1397
(((lp1398
I1
aI2
aI3
atI1
tp1399
a(((lp1400
I0
atI0
tp1401
a(((lp1402
I1
aI1
aI2
aI1
atI1
tp1403
a(((lp1404
I2
aI14
atI2
tp1405
a(((lp1406
I14
aI3
atI14
tp1407
a(((lp1408
I8
aI7
aI8
aI0
atI8
tp1409
a(((lp1410
I2
aI2
aI12
atI2
tp1411
a(((lp1412
I10
aI3
aI6
aI10
aI15
atI10
tp1413
a(((lp1414
I16
aI3
aI0
aI8
aI0
atI16
tp1415
a(((lp1416
I16
aI14
atI16
tp1417
a(((lp1418
I6
aI3
aI0
aI8
atI6
tp1419
a(((lp1420
I14
aI14
aI4
aI9
aI13
aI2
atI14
tp1421
a(((lp1422
I11
aI0
aI14
atI11
tp1423
asg40
I00
sg41
g2
(g42
g4
NtRp1424
(dp1425
g45
I00
sg46
g47
sg48
(lp1426
g2
(g42
g4
NtRp1427
(dp1428
g45
I00
sg46
g52
sg48
(lp1429
g54
asbag54
asbsg61
(lp1430
I44
aF6.5333333333333341
aF19.049999999999997
aF799.41666666666674
aI0
asg46
Vhead
p1431
sbag2
(g3
g4
NtRp1432
(dp1433
g7
(lp1434
(((lp1435
I1
aI1
aI2
atI1
tp1436
a(((lp1437
I1
aI2
aI3
atI2
tp1438
a(((lp1439
I2
aI1
aI2
atI2
tp1440
a(((lp1441
I2
aI3
aI4
atI4
tp1442
a(((lp1443
I3
aI1
aI3
aI4
aI2
atI4
tp1444
a(((lp1445
I4
aI2
aI6
aI10
aI8
aI12
atI8
tp1446
a(((lp1447
I3
aI5
aI15
aI8
aI1
aI9
atI8
tp1448
a(((lp1449
I1
aI15
aI5
aI16
aI16
atI15
tp1450
a(((lp1451
I4
aI6
aI9
aI10
aI14
aI10
aI8
atI14
tp1452
a(((lp1453
I1
aI7
aI10
atI7
tp1454
a(((lp1455
I1
aI1
aI16
aI0
aI3
aI12
aI2
atI1
tp1456
a(((lp1457
I6
aI11
aI6
aI2
aI2
aI3
aI16
atI16
tp1458
a(((lp1459
I5
aI11
aI2
aI3
aI13
aI7
atI7
tp1460
asg40
I00
sg41
g2
(g42
g4
NtRp1461
(dp1462
g45
I00
sg46
g47
sg48
(lp1463
g2
(g42
g4
NtRp1464
(dp1465
g45
I00
sg46
g52
sg48
(lp1466
g54
asbag54
asbsg61
(lp1467
I64
aF8.3666666666666671
aF20.847619047619052
aF1010.5428571428572
aI0
asg46
Vindex-head
p1468
sbag2
(g3
g4
NtRp1469
(dp1470
g7
(lp1471
(((lp1472
I0
aI5
atI5
tp1473
a(((lp1474
I10
aI5
aI1
aI10
atI5
tp1475
a(((lp1476
I3
aI1
aI6
aI9
aI5
aI10
aI14
atI1
tp1477
a(((lp1478
I13
aI11
aI9
aI10
aI11
aI2
aI5
atI11
tp1479
a(((lp1480
I12
aI4
aI7
aI9
aI6
aI14
atI4
tp1481
a(((lp1482
I12
aI15
aI6
aI12
aI2
aI5
aI2
aI3
atI15
tp1483
a(((lp1484
I3
aI8
aI1
aI10
aI10
aI16
atI8
tp1485
a(((lp1486
I14
aI9
aI8
aI0
aI6
aI13
aI14
aI6
atI9
tp1487
a(((lp1488
I3
aI15
atI15
tp1489
a(((lp1490
I13
aI12
aI16
aI6
aI13
aI0
aI7
aI3
atI12
tp1491
a(((lp1492
I3
aI11
aI13
aI2
atI11
tp1493
a(((lp1494
I10
aI5
aI7
aI0
aI12
aI4
aI7
aI0
atI5
tp1495
a(((lp1496
I1
aI1
aI5
aI4
aI10
aI8
atI1
tp1497
asg40
I00
sg41
g2
(g42
g4
NtRp1498
(dp1499
g45
I00
sg46
g47
sg48
(lp1500
g2
(g42
g4
NtRp1501
(dp1502
g45
I00
sg46
g52
sg48
(lp1503
g54
asbag54
asbsg61
(lp1504
I76
aF8.613095238095239
aF9.4285714285714306
aF1426.452380952381
aI0
asg46
Vindex-k with k=2
p1505
sbag2
(g3
g4
NtRp1506
(dp1507
g7
(lp1508
(((lp1509
I15
aI6
aI14
aI15
aI13
aI8
atI14
tp1510
a(((lp1511
I12
aI2
aI4
aI12
aI2
aI14
atI4
tp1512
a(((lp1513
I15
aI6
aI2
atI2
tp1514
a(((lp1515
I15
aI16
aI6
aI6
aI15
aI0
aI14
aI4
aI5
aI1
atI6
tp1516
a(((lp1517
I0
aI12
aI2
aI0
aI12
aI16
aI4
aI16
aI6
atI2
tp1518
a(((lp1519
I5
aI5
aI12
aI2
aI9
aI7
aI3
aI14
atI12
tp1520
a(((lp1521
I1
aI10
aI8
aI13
aI7
aI9
aI5
aI7
atI8
tp1522
a(((lp1523
I8
aI6
aI14
aI11
atI14
tp1524
a(((lp1525
I11
aI16
aI4
aI10
aI8
aI2
aI6
aI14
atI4
tp1526
a(((lp1527
I13
aI1
aI12
aI0
aI14
aI3
aI13
aI6
aI7
aI5
atI12
tp1528
a(((lp1529
I14
aI10
aI3
atI3
tp1530
a(((lp1531
I0
aI7
aI15
aI3
aI6
aI6
atI15
tp1532
a(((lp1533
I10
aI7
aI13
aI16
aI7
aI11
aI2
aI2
atI13
tp1534
asg40
I00
sg41
g2
(g42
g4
NtRp1535
(dp1536
g45
I00
sg46
g47
sg48
(lp1537
g2
(g42
g4
NtRp1538
(dp1539
g45
I00
sg46
g52
sg48
(lp1540
g54
asbag54
asbsg61
(lp1541
I89
aF8.9722222222222214
aF1.7611111111111093
aF2032.3888888888887
aI0
asg46
Vindex-k with k=3
p1542
sbag2
(g3
g4
NtRp1543
(dp1544
g7
(lp1545
(((lp1546
I3
aI4
aI1
aI1
aI4
aI9
aI3
at(lp1547
I3
aI1
aI4
aI1
aI1
aI1
aI1
aI1
aI4
aI1
aI9
aI1
aI3
atp1548
a(((lp1549
I5
at(lp1550
I5
atp1551
a(((lp1552
I3
aI5
aI12
aI7
aI9
at(lp1553
I3
aI1
aI5
aI1
aI12
aI1
aI7
aI1
aI9
atp1554
a(((lp1555
I8
aI9
aI0
at(lp1556
I8
aI1
aI9
aI1
aI0
atp1557
a(((lp1558
I4
aI11
aI4
aI10
aI7
aI1
at(lp1559
I4
aI1
aI11
aI1
aI4
aI1
aI10
aI1
aI7
aI1
aI1
atp1560
a(((lt(ltp1561
a(((lp1562
I4
aI1
aI3
at(lp1563
I4
aI1
aI1
aI1
aI3
atp1564
a(((lp1565
I9
at(lp1566
I9
atp1567
a(((lp1568
I1
aI16
aI10
aI16
aI14
aI1
at(lp1569
I1
aI1
aI16
aI1
aI10
aI1
aI16
aI1
aI14
aI1
aI1
atp1570
a(((lt(ltp1571
a(((lt(ltp1572
a(((lt(ltp1573
a(((lt(ltp1574
asg40
I00
sg41
g2
(g42
g4
NtRp1575
(dp1576
g45
I00
sg46
g47
sg48
(lp1577
g2
(g42
g4
NtRp1578
(dp1579
g45
I00
sg46
g52
sg48
(lp1580
g54
asbag2
(g42
g4
NtRp1581
(dp1582
g45
I00
sg46
g52
sg48
(lp1583
g54
asbasbsg61
(lp1584
I-24
aF0
aF-12.763580863580863
aF413.90304140304147
aI1
asg46
Vintersperse-k with k=1
p1585
sbag2
(g3
g4
NtRp1586
(dp1587
g7
(lp1588
(((lp1589
I11
aI6
aI13
aI1
aI6
aI12
aI7
at(lp1590
I11
aI3
aI6
aI3
aI13
aI3
aI1
aI3
aI6
aI3
aI12
aI3
aI7
atp1591
a(((lt(ltp1592
a(((lp1593
I0
aI1
aI10
aI0
aI11
at(lp1594
I0
aI3
aI1
aI3
aI10
aI3
aI0
aI3
aI11
atp1595
a(((lt(ltp1596
a(((lt(ltp1597
a(((lp1598
I1
aI6
aI6
aI2
aI0
aI3
at(lp1599
I1
aI3
aI6
aI3
aI6
aI3
aI2
aI3
aI0
aI3
aI3
atp1600
a(((lp1601
I7
aI3
aI9
aI6
aI6
aI5
at(lp1602
I7
aI3
aI3
aI3
aI9
aI3
aI6
aI3
aI6
aI3
aI5
atp1603
a(((lp1604
I7
aI7
at(lp1605
I7
aI3
aI7
atp1606
a(((lp1607
I13
aI12
aI6
aI4
aI16
aI16
at(lp1608
I13
aI3
aI12
aI3
aI6
aI3
aI4
aI3
aI16
aI3
aI16
atp1609
a(((lt(ltp1610
a(((lp1611
I11
aI12
aI3
aI12
aI1
at(lp1612
I11
aI3
aI12
aI3
aI3
aI3
aI12
aI3
aI1
atp1613
a(((lt(ltp1614
a(((lt(ltp1615
asg40
I00
sg41
g2
(g42
g4
NtRp1616
(dp1617
g45
I00
sg46
g47
sg48
(lp1618
g2
(g42
g4
NtRp1619
(dp1620
g45
I00
sg46
g52
sg48
(lp1621
g54
asbag2
(g42
g4
NtRp1622
(dp1623
g45
I00
sg46
g52
sg48
(lp1624
g54
asbasbsg61
(lp1625
I-30
aF0
aF-11.472338772338771
aF353.43084693084694
aI1
asg46
Vintersperse-k with k=3
p1626
sbag2
(g3
g4
NtRp1627
(dp1628
g7
(lp1629
(((lp1630
I5
at(lp1631
I5
atp1632
a(((lp1633
I6
aI15
aI11
aI1
aI1
aI13
at(lp1634
I6
aI-2
aI15
aI-2
aI11
aI-2
aI1
aI-2
aI1
aI-2
aI13
atp1635
a(((lt(ltp1636
a(((lp1637
I8
aI13
aI5
aI8
aI1
at(lp1638
I8
aI-2
aI13
aI-2
aI5
aI-2
aI8
aI-2
aI1
atp1639
a(((lp1640
I5
at(lp1641
I5
atp1642
a(((lp1643
I1
aI3
aI7
aI14
aI12
aI7
at(lp1644
I1
aI-2
aI3
aI-2
aI7
aI-2
aI14
aI-2
aI12
aI-2
aI7
atp1645
a(((lp1646
I7
aI3
at(lp1647
I7
aI-2
aI3
atp1648
a(((lp1649
I1
aI7
aI10
at(lp1650
I1
aI-2
aI7
aI-2
aI10
atp1651
a(((lp1652
I6
aI9
aI7
aI13
aI2
at(lp1653
I6
aI-2
aI9
aI-2
aI7
aI-2
aI13
aI-2
aI2
atp1654
a(((lp1655
I11
aI6
aI14
aI10
aI5
aI12
aI15
at(lp1656
I11
aI-2
aI6
aI-2
aI14
aI-2
aI10
aI-2
aI5
aI-2
aI12
aI-2
aI15
atp1657
a(((lp1658
I6
aI5
at(lp1659
I6
aI-2
aI5
atp1660
a(((lp1661
I2
aI7
aI6
aI15
at(lp1662
I2
aI-2
aI7
aI-2
aI6
aI-2
aI15
atp1663
a(((lp1664
I7
aI0
aI16
aI8
aI16
at(lp1665
I7
aI-2
aI0
aI-2
aI16
aI-2
aI8
aI-2
aI16
atp1666
asg40
I00
sg41
g2
(g42
g4
NtRp1667
(dp1668
g45
I00
sg46
g47
sg48
(lp1669
g2
(g42
g4
NtRp1670
(dp1671
g45
I00
sg46
g52
sg48
(lp1672
g54
asbag2
(g42
g4
NtRp1673
(dp1674
g45
I00
sg46
g52
sg48
(lp1675
g54
asbasbsg61
(lp1676
I-35
aF0
aF-39.797591297591303
aF1967.1793317793317
aI1
asg46
Vintersperse-k with k=-2
p1677
sbag2
(g3
g4
NtRp1678
(dp1679
g7
(lp1680
(((lp1681
I15
aI10
aI13
aI3
aI0
aI14
at(lp1682
I15
aI0
aI10
aI0
aI13
aI0
aI3
aI0
aI0
aI0
aI14
atp1683
a(((lp1684
I2
aI3
aI10
aI11
aI7
aI15
aI12
at(lp1685
I2
aI0
aI3
aI0
aI10
aI0
aI11
aI0
aI7
aI0
aI15
aI0
aI12
atp1686
a(((lp1687
I12
aI2
aI12
aI15
aI2
aI2
aI13
at(lp1688
I12
aI0
aI2
aI0
aI12
aI0
aI15
aI0
aI2
aI0
aI2
aI0
aI13
atp1689
a(((lp1690
I16
aI2
aI3
at(lp1691
I16
aI0
aI2
aI0
aI3
atp1692
a(((lt(ltp1693
a(((lp1694
I0
aI16
aI5
aI4
aI11
aI4
aI1
at(lp1695
I0
aI0
aI16
aI0
aI5
aI0
aI4
aI0
aI11
aI0
aI4
aI0
aI1
atp1696
a(((lp1697
I16
aI2
aI14
aI9
at(lp1698
I16
aI0
aI2
aI0
aI14
aI0
aI9
atp1699
a(((lp1700
I4
at(lp1701
I4
atp1702
a(((lp1703
I4
at(lp1704
I4
atp1705
a(((lp1706
I13
aI3
aI9
aI5
at(lp1707
I13
aI0
aI3
aI0
aI9
aI0
aI5
atp1708
a(((lp1709
I13
at(lp1710
I13
atp1711
a(((lp1712
I1
aI0
aI7
aI9
aI13
aI0
aI3
at(lp1713
I1
aI0
aI0
aI0
aI7
aI0
aI9
aI0
aI13
aI0
aI0
aI0
aI3
atp1714
a(((lp1715
I1
aI14
aI10
at(lp1716
I1
aI0
aI14
aI0
aI10
atp1717
asg40
I00
sg41
g2
(g42
g4
NtRp1718
(dp1719
g45
I00
sg46
g47
sg48
(lp1720
g2
(g42
g4
NtRp1721
(dp1722
g45
I00
sg46
g52
sg48
(lp1723
g54
asbag2
(g42
g4
NtRp1724
(dp1725
g45
I00
sg46
g52
sg48
(lp1726
g54
asbasbsg61
(lp1727
I-39
aF0
aF-30.566483516483515
aF1289.6379120879119
aI1
asg46
Vintersperse-k with k=0
p1728
sbag2
(g3
g4
NtRp1729
(dp1730
g7
(lp1731
(((lp1732
I2
aI0
aI4
atI01
tp1733
a(((lp1734
I2
aI5
aI4
aI2
aI0
aI5
aI1
aI1
atI00
tp1735
a(((lp1736
I5
aI11
atI00
tp1737
a(((lp1738
I13
aI3
atI00
tp1739
a(((lp1740
I4
aI14
aI4
atI01
tp1741
a(((lp1742
I5
aI14
aI10
atI00
tp1743
a(((lp1744
I9
atI00
tp1745
a(((lp1746
I10
aI18
aI18
aI10
aI28
atI01
tp1747
a(((lp1748
I15
aI5
aI12
aI9
atI00
tp1749
a(((lp1750
I4
aI1
aI10
aI2
aI10
atI00
tp1751
a(((lp1752
I4
aI20
aI18
aI22
aI6
aI8
aI26
atI01
tp1753
a(((lp1754
I16
aI15
aI12
aI8
aI5
atI00
tp1755
a(((lp1756
I12
aI4
aI13
atI00
tp1757
asg40
I00
sg41
g2
(g42
g4
NtRp1758
(dp1759
g45
I00
sg46
g47
sg48
(lp1760
g2
(g42
g4
NtRp1761
(dp1762
g45
I00
sg46
g52
sg48
(lp1763
g54
asbag1195
asbsg61
(lp1764
I51
aI0
aF114.67380952380954
aF1150.4071428571431
aI-1
asg46
Vis-evens
p1765
sbag2
(g3
g4
NtRp1766
(dp1767
g7
(lp1768
(((lp1769
I7
aI9
aI14
aI8
aI12
aI16
atI00
tp1770
a(((ltI01
tp1771
a(((lp1772
I3
aI11
atI00
tp1773
a(((lp1774
I26
aI8
aI30
atI01
tp1775
a(((lp1776
I14
atI01
tp1777
a(((lp1778
I32
aI10
aI24
atI01
tp1779
a(((ltI01
tp1780
a(((lp1781
I6
aI1
aI12
aI6
atI00
tp1782
a(((lp1783
I12
aI0
aI1
atI00
tp1784
a(((lp1785
I18
aI30
aI18
aI12
atI01
tp1786
a(((lp1787
I10
aI4
aI16
aI0
aI4
aI8
aI0
atI01
tp1788
a(((lp1789
I12
aI4
atI01
tp1790
a(((lp1791
I22
aI16
aI18
aI22
aI24
aI32
aI22
atI01
tp1792
asg40
I00
sg41
g2
(g42
g4
NtRp1793
(dp1794
g45
I00
sg46
g47
sg48
(lp1795
g2
(g42
g4
NtRp1796
(dp1797
g45
I00
sg46
g52
sg48
(lp1798
g54
asbag1195
asbsg61
(lp1799
I42
aI0
aF141.70238095238093
aF1326.511904761905
aI-1
asg46
Vis-mod-k with k=2
p1800
sbag2
(g3
g4
NtRp1801
(dp1802
g7
(lp1803
(((lp1804
I15
aI48
aI45
atI01
tp1805
a(((lp1806
I4
aI10
aI14
aI12
aI1
aI16
atI00
tp1807
a(((lp1808
I15
aI27
aI36
aI42
aI27
atI01
tp1809
a(((lp1810
I1
aI8
aI12
atI00
tp1811
a(((lp1812
I2
aI9
aI2
aI12
aI1
atI00
tp1813
a(((ltI01
tp1814
a(((lp1815
I8
aI9
aI3
aI10
aI10
aI8
atI00
tp1816
a(((lp1817
I10
aI11
aI1
aI4
aI4
aI0
atI00
tp1818
a(((lp1819
I16
aI1
aI11
aI12
aI16
atI00
tp1820
a(((lp1821
I13
aI0
aI7
aI5
aI9
atI00
tp1822
a(((lp1823
I16
aI11
aI15
atI00
tp1824
a(((lp1825
I7
aI8
aI4
aI13
aI12
atI00
tp1826
a(((lp1827
I12
aI39
aI36
aI3
aI3
atI01
tp1828
asg40
I00
sg41
g2
(g42
g4
NtRp1829
(dp1830
g45
I00
sg46
g47
sg48
(lp1831
g2
(g42
g4
NtRp1832
(dp1833
g45
I00
sg46
g52
sg48
(lp1834
g54
asbag1195
asbsg61
(lp1835
I57
aI0
aF159.50000000000003
aF3119.0999999999999
aI-1
asg46
Vis-mod-k with k=3
p1836
sbag2
(g3
g4
NtRp1837
(dp1838
g7
(lp1839
(((lp1840
I12
aI4
aI1
aI8
atI00
tp1841
a(((lp1842
I9
aI10
aI8
atI00
tp1843
a(((lp1844
I14
aI9
aI8
aI14
aI12
aI0
aI1
atI00
tp1845
a(((lp1846
I55
aI55
aI70
aI80
atI01
tp1847
a(((lp1848
I45
aI0
aI80
aI70
atI01
tp1849
a(((lp1850
I80
aI70
atI01
tp1851
a(((ltI01
tp1852
a(((lp1853
I0
aI12
aI15
aI15
aI6
atI00
tp1854
a(((lp1855
I10
aI6
atI00
tp1856
a(((lp1857
I16
aI4
aI13
aI12
aI10
atI00
tp1858
a(((lp1859
I25
aI65
aI15
aI25
atI01
tp1860
a(((lp1861
I40
aI35
aI30
aI65
aI20
aI10
aI70
atI01
tp1862
a(((lp1863
I40
aI75
aI35
aI75
aI35
aI25
atI01
tp1864
asg40
I00
sg41
g2
(g42
g4
NtRp1865
(dp1866
g45
I00
sg46
g47
sg48
(lp1867
g2
(g42
g4
NtRp1868
(dp1869
g45
I00
sg46
g52
sg48
(lp1870
g54
asbag1195
asbsg61
(lp1871
I53
aI0
aF359.4571428571428
aF11646.342857142858
aI-1
asg46
Vis-mod-k with k=5
p1872
sbag2
(g3
g4
NtRp1873
(dp1874
g7
(lp1875
(((lp1876
I2
aI0
aI4
atI00
tp1877
a(((lp1878
I2
aI5
aI4
aI2
aI0
aI5
aI1
aI1
atI00
tp1879
a(((lp1880
I13
aI12
aI2
aI9
aI11
aI0
aI15
atI00
tp1881
a(((lp1882
I11
aI10
aI4
aI1
atI00
tp1883
a(((lp1884
I5
aI10
aI1
atI00
tp1885
a(((lp1886
I2
atI00
tp1887
a(((lp1888
I7
aI5
aI9
aI23
aI5
aI11
aI13
atI01
tp1889
a(((lp1890
I3
aI27
atI01
tp1891
a(((lp1892
I33
aI9
aI5
aI27
aI1
aI23
aI21
atI01
tp1893
a(((lp1894
I11
aI3
aI15
aI1
atI01
tp1895
a(((lp1896
I13
aI7
aI29
aI9
aI15
aI1
atI01
tp1897
a(((lp1898
I27
aI33
aI21
aI9
aI5
aI29
aI21
atI01
tp1899
a(((lp1900
I14
aI16
aI1
atI00
tp1901
asg40
I00
sg41
g2
(g42
g4
NtRp1902
(dp1903
g45
I00
sg46
g47
sg48
(lp1904
g2
(g42
g4
NtRp1905
(dp1906
g45
I00
sg46
g52
sg48
(lp1907
g54
asbag1195
asbsg61
(lp1908
I62
aI0
aF120.49999999999999
aF3096.6666666666665
aI-1
asg46
Vis-odds
p1909
sbag2
(g3
g4
NtRp1910
(dp1911
g7
(lp1912
(((lp1913
I2
atI01
tp1914
a(((lp1915
I2
aI0
atI00
tp1916
a(((lp1917
I5
aI11
atI01
tp1918
a(((lp1919
I5
aI11
aI12
atI00
tp1920
a(((lp1921
I11
aI4
aI5
aI9
aI12
aI16
atI00
tp1922
a(((lp1923
I59
aI103
aI89
aI19
aI41
aI2
aI167
atI01
tp1924
a(((lp1925
I4
atI00
tp1926
a(((lp1927
I83
aI5
aI149
aI29
atI01
tp1928
a(((lp1929
I173
aI79
aI13
aI23
aI149
aI197
aI29
atI01
tp1930
a(((ltI01
tp1931
a(((ltI01
tp1932
a(((lp1933
I0
atI00
tp1934
a(((lp1935
I2
aI10
aI16
atI00
tp1936
asg40
I00
sg41
g2
(g42
g4
NtRp1937
(dp1938
g45
I00
sg46
g47
sg48
(lp1939
g2
(g42
g4
NtRp1940
(dp1941
g45
I00
sg46
g52
sg48
(lp1942
g54
asbag1195
asbsg61
(lp1943
I37
aI0
aF272.95238095238091
aF67470.976190476198
aI-1
asg46
Vis-primes
p1944
sbag2
(g3
g4
NtRp1945
(dp1946
g7
(lp1947
(((lp1948
I25
atI01
tp1949
a(((lp1950
I3
atI00
tp1951
a(((lp1952
I1
aI4
atI01
tp1953
a(((lp1954
I1
aI4
aI9
atI01
tp1955
a(((lp1956
I1
aI4
aI9
aI15
atI00
tp1957
a(((lp1958
I169
aI16
aI196
aI0
aI49
atI01
tp1959
a(((lp1960
I12
aI16
aI0
aI12
aI4
atI00
tp1961
a(((lp1962
I12
aI10
atI00
tp1963
a(((lp1964
I81
atI01
tp1965
a(((ltI01
tp1966
a(((ltI01
tp1967
a(((lp1968
I4
aI256
aI81
aI25
aI4
aI0
atI01
tp1969
a(((lp1970
I13
aI12
aI16
aI10
aI6
atI00
tp1971
asg40
I00
sg41
g2
(g42
g4
NtRp1972
(dp1973
g45
I00
sg46
g47
sg48
(lp1974
g2
(g42
g4
NtRp1975
(dp1976
g45
I00
sg46
g52
sg48
(lp1977
g54
asbag1195
asbsg61
(lp1978
I35
aI0
aF302.2833333333333
aF82971.250000000015
aI-1
asg46
Vis-squares
p1979
sbag2
(g3
g4
NtRp1980
(dp1981
g7
(lp1982
(((lp1983
I3
aI1
aI3
aI4
aI7
aI6
aI9
aI2
at(lp1984
I3
aI6
aI9
atp1985
a(((lp1986
I4
aI2
aI6
aI10
aI8
aI12
at(lp1987
I8
aI12
atp1988
a(((lp1989
I1
aI2
aI3
at(lp1990
I2
aI3
atp1991
a(((lp1992
I12
aI24
aI15
aI84
at(lp1993
I24
aI84
atp1994
a(((lp1995
I5
at(ltp1996
a(((lp1997
I4
at(ltp1998
a(((lp1999
I4
aI12
aI16
at(lp2000
I12
aI16
atp2001
a(((lp2002
I11
aI0
aI1
aI4
aI13
aI16
at(lp2003
I0
atp2004
a(((lp2005
I8
aI13
aI15
aI11
aI4
aI5
aI8
at(lp2006
I8
atp2007
a(((lp2008
I7
aI8
aI35
aI0
aI8
aI8
aI7
at(lp2009
I35
aI0
aI7
atp2010
a(((lp2011
I12
aI0
aI4
aI13
aI13
aI11
at(lp2012
I0
atp2013
a(((lp2014
I4
aI8
at(lp2015
I8
atp2016
a(((lp2017
I1
aI9
aI11
aI5
aI14
aI2
aI15
at(lp2018
I9
aI11
aI5
aI14
aI2
aI15
atp2019
asg40
I00
sg41
g2
(g42
g4
NtRp2020
(dp2021
g45
I00
sg46
g47
sg48
(lp2022
g2
(g42
g4
NtRp2023
(dp2024
g45
I00
sg46
g52
sg48
(lp2025
g54
asbag2
(g42
g4
NtRp2026
(dp2027
g45
I00
sg46
g52
sg48
(lp2028
g54
asbasbsg61
(lp2029
I37
aF7.3333333333333339
aF8.9940476190476222
aF-2419.2202380952385
aI1
asg46
Vkeep-mod-head
p2030
sbag2
(g3
g4
NtRp2031
(dp2032
g7
(lp2033
(((lp2034
I13
aI8
aI3
aI15
aI14
aI9
aI16
at(lp2035
I8
aI14
aI16
atp2036
a(((lp2037
I4
aI3
aI16
aI9
aI3
at(lp2038
I4
aI16
atp2039
a(((lp2040
I14
aI5
aI16
aI10
aI13
at(lp2041
I14
aI16
aI10
atp2042
a(((lp2043
I10
aI13
aI16
at(lp2044
I10
aI16
atp2045
a(((lp2046
I2
at(lp2047
I2
atp2048
a(((lp2049
I10
aI13
at(lp2050
I10
atp2051
a(((lp2052
I10
aI12
aI2
aI18
aI7
aI11
at(lp2053
I10
aI12
aI2
aI18
atp2054
a(((lp2055
I16
aI5
aI9
aI12
aI13
aI8
aI1
at(lp2056
I16
aI12
aI8
atp2057
a(((lp2058
I10
aI7
aI12
at(lp2059
I10
aI12
atp2060
a(((lp2061
I2
aI16
aI0
aI4
aI18
aI10
aI18
at(lp2062
I2
aI16
aI0
aI4
aI18
aI10
aI18
atp2063
a(((lp2064
I8
aI8
aI16
aI15
at(lp2065
I8
aI8
aI16
atp2066
a(((lp2067
I4
aI14
aI6
aI1
aI10
aI9
at(lp2068
I4
aI14
aI6
aI10
atp2069
a(((lp2070
I15
aI3
aI2
aI2
aI9
aI1
aI12
at(lp2071
I2
aI2
aI12
atp2072
asg40
I00
sg41
g2
(g42
g4
NtRp2073
(dp2074
g45
I00
sg46
g47
sg48
(lp2075
g2
(g42
g4
NtRp2076
(dp2077
g45
I00
sg46
g52
sg48
(lp2078
g54
asbag2
(g42
g4
NtRp2079
(dp2080
g45
I00
sg46
g52
sg48
(lp2081
g54
asbasbsg61
(lp2082
I25
aF4.5976190476190482
aF8.5785714285714292
aF-540.92619047619041
aI1
asg46
Vkeep-mod-k with k=2
p2083
sbag2
(g3
g4
NtRp2084
(dp2085
g7
(lp2086
(((lp2087
I4
aI1
aI4
aI3
at(lp2088
I3
atp2089
a(((lp2090
I9
at(lp2091
I9
atp2092
a(((lt(ltp2093
a(((lp2094
I15
aI9
aI5
at(lp2095
I15
aI9
atp2096
a(((lp2097
I0
aI9
aI13
aI6
aI6
aI11
at(lp2098
I0
aI9
aI6
aI6
atp2099
a(((lp2100
I27
at(lp2101
I27
atp2102
a(((lp2103
I13
aI4
aI0
at(lp2104
I0
atp2105
a(((lt(ltp2106
a(((lp2107
I24
aI14
aI0
aI14
aI4
aI6
aI15
at(lp2108
I24
aI0
aI6
aI15
atp2109
a(((lp2110
I8
aI4
aI4
aI7
aI3
aI14
aI11
at(lp2111
I3
atp2112
a(((lp2113
I12
aI18
at(lp2114
I12
aI18
atp2115
a(((lp2116
I9
aI9
aI8
aI9
aI13
aI13
at(lp2117
I9
aI9
aI9
atp2118
a(((lp2119
I8
aI7
aI2
aI3
at(lp2120
I3
atp2121
asg40
I00
sg41
g2
(g42
g4
NtRp2122
(dp2123
g45
I00
sg46
g47
sg48
(lp2124
g2
(g42
g4
NtRp2125
(dp2126
g45
I00
sg46
g52
sg48
(lp2127
g54
asbag2
(g42
g4
NtRp2128
(dp2129
g45
I00
sg46
g52
sg48
(lp2130
g54
asbasbsg61
(lp2131
I23
aF3.9166666666666665
aF-12.785714285714285
aF-407.59523809523807
aI1
asg46
Vkeep-mod-k with k=3
p2132
sbag2
(g3
g4
NtRp2133
(dp2134
g7
(lp2135
(((lp2136
I8
aI15
aI16
aI13
at(lp2137
I15
atp2138
a(((lt(ltp2139
a(((lp2140
I9
at(ltp2141
a(((lp2142
I6
aI9
aI14
aI13
aI16
aI10
aI1
at(lp2143
I10
atp2144
a(((lp2145
I0
aI0
at(lp2146
I0
aI0
atp2147
a(((lp2148
I8
aI7
at(ltp2149
a(((lp2150
I10
aI14
aI15
aI5
at(lp2151
I10
aI15
aI5
atp2152
a(((lp2153
I5
aI16
aI0
aI12
aI0
at(lp2154
I5
aI0
aI0
atp2155
a(((lt(ltp2156
a(((lp2157
I5
aI2
aI11
aI0
aI8
aI4
aI3
at(lp2158
I5
aI0
atp2159
a(((lp2160
I7
aI14
aI2
aI2
aI15
aI12
at(lp2161
I15
atp2162
a(((lp2163
I0
aI16
aI6
aI15
aI1
aI10
at(lp2164
I0
aI15
aI10
atp2165
a(((lp2166
I16
aI15
aI4
at(lp2167
I15
atp2168
asg40
I00
sg41
g2
(g42
g4
NtRp2169
(dp2170
g45
I00
sg46
g47
sg48
(lp2171
g2
(g42
g4
NtRp2172
(dp2173
g45
I00
sg46
g52
sg48
(lp2174
g54
asbag2
(g42
g4
NtRp2175
(dp2176
g45
I00
sg46
g52
sg48
(lp2177
g54
asbasbsg61
(lp2178
I30
aF6.8047619047619055
aF-12.504761904761903
aF-848.15238095238101
aI1
asg46
Vkeep-mod-k with k=5
p2179
sbag2
(g3
g4
NtRp2180
(dp2181
g7
(lp2182
(((lp2183
I13
aI4
aI10
aI7
aI11
aI4
aI5
aI7
aI16
atI13
tp2184
a(((lp2185
I15
aI11
aI2
aI11
aI9
atI11
tp2186
a(((lp2187
I14
aI12
aI13
aI7
aI10
aI0
atI13
tp2188
a(((lp2189
I14
aI15
aI9
aI13
aI14
aI12
aI16
aI3
aI10
atI15
tp2190
a(((lp2191
I4
aI14
atI4
tp2192
a(((lp2193
I2
aI3
aI13
atI3
tp2194
a(((lp2195
I16
aI1
aI7
aI12
aI14
atI14
tp2196
a(((lp2197
I2
aI15
aI9
aI2
atI9
tp2198
a(((lp2199
I11
aI4
aI2
aI15
aI4
aI12
aI11
aI3
atI12
tp2200
a(((lp2201
I10
aI11
aI11
aI16
atI11
tp2202
a(((lp2203
I15
aI11
aI15
aI10
aI15
atI15
tp2204
a(((lp2205
I12
aI3
aI0
aI13
aI11
aI15
aI9
aI8
aI13
atI13
tp2206
a(((lp2207
I9
aI0
aI2
aI4
aI14
aI11
aI4
aI3
aI11
atI11
tp2208
asg40
I00
sg41
g2
(g42
g4
NtRp2209
(dp2210
g45
I00
sg46
g47
sg48
(lp2211
g2
(g42
g4
NtRp2212
(dp2213
g45
I00
sg46
g52
sg48
(lp2214
g54
asbag54
asbsg61
(lp2215
I78
aF8.3138888888888882
aF24.005555555555553
aF1494.8333333333333
aI0
asg46
Vkth-largest with k=2
p2216
sbag2
(g3
g4
NtRp2217
(dp2218
g7
(lp2219
(((lp2220
I14
aI11
aI11
atI11
tp2221
a(((lp2222
I15
aI1
aI0
aI2
aI16
aI3
atI3
tp2223
a(((lp2224
I12
aI13
aI12
aI1
aI9
atI12
tp2225
a(((lp2226
I10
aI7
aI5
aI11
aI13
aI0
aI3
aI15
aI1
atI11
tp2227
a(((lp2228
I8
aI16
aI6
aI2
aI12
atI8
tp2229
a(((lp2230
I16
aI1
aI16
atI1
tp2231
a(((lp2232
I3
aI1
aI15
aI4
aI11
aI16
atI11
tp2233
a(((lp2234
I12
aI1
aI13
aI4
atI4
tp2235
a(((lp2236
I4
aI7
aI11
atI4
tp2237
a(((lp2238
I3
aI15
aI8
aI5
aI8
aI11
aI13
aI15
aI4
aI5
atI13
tp2239
a(((lp2240
I6
aI15
aI8
aI0
aI14
aI15
aI12
aI8
atI14
tp2241
a(((lp2242
I2
aI15
aI13
aI0
aI2
aI0
aI1
aI10
aI16
atI13
tp2243
a(((lp2244
I7
aI3
aI13
aI11
aI16
atI11
tp2245
asg40
I00
sg41
g2
(g42
g4
NtRp2246
(dp2247
g45
I00
sg46
g47
sg48
(lp2248
g2
(g42
g4
NtRp2249
(dp2250
g45
I00
sg46
g52
sg48
(lp2251
g54
asbag54
asbsg61
(lp2252
I76
aF8.7305555555555561
aF3.2388888888888889
aF2063.2111111111108
aI0
asg46
Vkth-largest with k=3
p2253
sbag2
(g3
g4
NtRp2254
(dp2255
g7
(lp2256
(((lp2257
I10
aI6
aI0
aI12
aI10
aI3
aI14
aI0
atI0
tp2258
a(((lp2259
I13
aI6
aI12
atI12
tp2260
a(((lp2261
I0
aI15
aI8
aI3
atI3
tp2262
a(((lp2263
I12
aI10
aI15
atI12
tp2264
a(((lp2265
I10
aI2
aI9
atI9
tp2266
a(((lp2267
I6
aI16
aI12
aI0
aI6
aI14
atI6
tp2268
a(((lp2269
I10
aI16
aI10
atI10
tp2270
a(((lp2271
I11
aI4
aI14
aI3
aI10
aI14
atI4
tp2272
a(((lp2273
I12
aI11
aI4
aI15
aI14
aI2
aI12
atI4
tp2274
a(((lp2275
I13
aI0
aI9
atI9
tp2276
a(((lp2277
I12
aI10
aI16
aI3
atI10
tp2278
a(((lp2279
I8
aI6
aI2
aI10
aI2
aI8
aI10
aI12
atI2
tp2280
a(((lp2281
I5
aI13
aI1
aI5
aI4
aI4
aI14
aI6
aI10
atI4
tp2282
asg40
I00
sg41
g2
(g42
g4
NtRp2283
(dp2284
g45
I00
sg46
g47
sg48
(lp2285
g2
(g42
g4
NtRp2286
(dp2287
g45
I00
sg46
g52
sg48
(lp2288
g54
asbag54
asbsg61
(lp2289
I67
aF8.3392857142857135
aF-30.097222222222221
aF1316.3472222222222
aI0
asg46
Vkth-smallest with k=2
p2290
sbag2
(g3
g4
NtRp2291
(dp2292
g7
(lp2293
(((lp2294
I1
aI5
aI15
aI0
aI10
aI0
aI14
aI5
atI1
tp2295
a(((lp2296
I7
aI6
aI9
aI5
aI13
aI2
aI11
atI6
tp2297
a(((lp2298
I12
aI1
aI5
aI10
aI10
atI10
tp2299
a(((lp2300
I16
aI9
aI12
aI6
aI0
aI13
aI16
aI3
aI13
aI0
atI3
tp2301
a(((lp2302
I10
aI9
aI2
aI9
aI5
aI8
atI8
tp2303
a(((lp2304
I9
aI16
aI1
aI11
aI5
aI3
aI3
aI7
aI13
atI3
tp2305
a(((lp2306
I12
aI13
aI14
aI15
aI6
aI3
atI12
tp2307
a(((lp2308
I15
aI7
aI11
aI12
aI14
aI5
aI15
aI11
aI15
atI11
tp2309
a(((lp2310
I13
aI12
aI8
aI8
aI5
aI13
aI12
atI8
tp2311
a(((lp2312
I15
aI15
aI6
atI15
tp2313
a(((lp2314
I14
aI14
aI15
aI3
aI2
aI14
aI4
aI14
aI4
atI4
tp2315
a(((lp2316
I3
aI8
aI6
aI7
aI10
aI7
atI7
tp2317
a(((lp2318
I7
aI11
aI12
aI16
aI1
aI10
aI13
aI11
aI8
aI16
atI8
tp2319
asg40
I00
sg41
g2
(g42
g4
NtRp2320
(dp2321
g45
I00
sg46
g47
sg48
(lp2322
g2
(g42
g4
NtRp2323
(dp2324
g45
I00
sg46
g52
sg48
(lp2325
g54
asbag54
asbsg61
(lp2326
I95
aF8.0884920634920636
aF-19.919841269841267
aF1834.7603174603173
aI0
asg46
Vkth-smallest with k=3
p2327
sbag2
(g3
g4
NtRp2328
(dp2329
g7
(lp2330
(((lp2331
I1
aI2
aI3
atI3
tp2332
a(((lp2333
I0
atI0
tp2334
a(((lp2335
I1
aI1
aI2
aI1
atI1
tp2336
a(((lp2337
I8
aI16
aI5
aI8
atI8
tp2338
a(((lp2339
I13
aI5
atI5
tp2340
a(((lp2341
I11
aI2
atI2
tp2342
a(((lp2343
I11
aI12
aI5
aI16
atI16
tp2344
a(((lp2345
I12
aI11
aI14
aI16
atI16
tp2346
a(((lp2347
I15
atI15
tp2348
a(((lp2349
I9
atI9
tp2350
a(((lp2351
I2
aI13
aI6
aI0
aI7
atI7
tp2352
a(((lp2353
I14
aI15
aI14
atI14
tp2354
a(((lp2355
I14
aI11
aI10
aI5
aI12
aI15
aI5
atI5
tp2356
asg40
I00
sg41
g2
(g42
g4
NtRp2357
(dp2358
g45
I00
sg46
g47
sg48
(lp2359
g2
(g42
g4
NtRp2360
(dp2361
g45
I00
sg46
g52
sg48
(lp2362
g54
asbag54
asbsg61
(lp2363
I41
aF5.7642857142857142
aF-5.46904761904762
aF416.04523809523812
aI0
asg46
Vlast
p2364
sbag2
(g3
g4
NtRp2365
(dp2366
g7
(lp2367
(((lp2368
I1
aI2
aI3
atI3
tp2369
a(((lp2370
I0
atI1
tp2371
a(((lp2372
I1
aI1
aI2
aI1
atI4
tp2373
a(((lp2374
I15
aI2
aI3
atI3
tp2375
a(((ltI0
tp2376
a(((lp2377
I12
aI2
aI2
atI3
tp2378
a(((lp2379
I4
aI2
aI11
atI3
tp2380
a(((lp2381
I6
aI7
aI16
aI7
atI4
tp2382
a(((lp2383
I13
aI3
aI8
aI12
atI4
tp2384
a(((lp2385
I10
aI7
aI10
aI7
aI5
atI5
tp2386
a(((lp2387
I14
aI14
atI2
tp2388
a(((lp2389
I13
aI14
aI0
aI0
aI8
aI5
aI11
atI7
tp2390
a(((ltI0
tp2391
asg40
I00
sg41
g2
(g42
g4
NtRp2392
(dp2393
g45
I00
sg46
g47
sg48
(lp2394
g2
(g42
g4
NtRp2395
(dp2396
g45
I00
sg46
g52
sg48
(lp2397
g54
asbag54
asbsg61
(lp2398
I39
aF8.007142857142858
aF-29.002380952380953
aF568.9785714285714
aI0
asg46
Vlen
p2399
sbag2
(g3
g4
NtRp2400
(dp2401
g7
(lp2402
(((lp2403
I1
aI2
aI3
atI3
tp2404
a(((lp2405
I0
atI0
tp2406
a(((lp2407
I1
aI1
aI2
aI1
atI2
tp2408
a(((lp2409
I2
atI2
tp2410
a(((lp2411
I8
atI8
tp2412
a(((lp2413
I1
aI6
aI1
aI10
aI4
aI13
aI8
atI13
tp2414
a(((lp2415
I3
aI2
atI3
tp2416
a(((lp2417
I1
aI3
aI2
aI8
atI8
tp2418
a(((lp2419
I1
aI4
aI2
atI4
tp2420
a(((lp2421
I2
aI9
aI6
atI9
tp2422
a(((lp2423
I4
aI16
aI11
aI15
aI6
aI8
aI11
atI16
tp2424
a(((lp2425
I4
aI0
aI14
aI4
aI5
aI11
aI8
atI14
tp2426
a(((lp2427
I13
aI7
aI11
aI5
aI16
aI12
atI16
tp2428
asg40
I00
sg41
g2
(g42
g4
NtRp2429
(dp2430
g45
I00
sg46
g47
sg48
(lp2431
g2
(g42
g4
NtRp2432
(dp2433
g45
I00
sg46
g52
sg48
(lp2434
g54
asbag54
asbsg61
(lp2435
I49
aF6.4761904761904763
aF37.226190476190482
aF520.34523809523807
aI0
asg46
Vmax
p2436
sbag2
(g3
g4
NtRp2437
(dp2438
g7
(lp2439
(((lp2440
I1
aI2
aI3
atI1
tp2441
a(((lp2442
I0
atI0
tp2443
a(((lp2444
I1
aI1
aI2
aI1
atI1
tp2445
a(((lp2446
I1
aI8
aI7
aI13
aI2
atI1
tp2447
a(((lp2448
I11
aI7
aI12
aI2
atI2
tp2449
a(((lp2450
I12
aI3
aI6
aI2
aI11
atI2
tp2451
a(((lp2452
I5
aI13
atI5
tp2453
a(((lp2454
I12
aI12
aI6
atI6
tp2455
a(((lp2456
I14
aI4
aI11
aI16
aI14
atI4
tp2457
a(((lp2458
I10
aI2
aI1
aI6
atI1
tp2459
a(((lp2460
I12
atI12
tp2461
a(((lp2462
I15
aI15
aI2
aI13
aI12
atI2
tp2463
a(((lp2464
I6
aI7
aI14
aI16
aI8
aI15
aI6
atI6
tp2465
asg40
I00
sg41
g2
(g42
g4
NtRp2466
(dp2467
g45
I00
sg46
g47
sg48
(lp2468
g2
(g42
g4
NtRp2469
(dp2470
g45
I00
sg46
g52
sg48
(lp2471
g54
asbag54
asbsg61
(lp2472
I49
aF6.7642857142857133
aF-50.48571428571428
aF676.52857142857147
aI0
asg46
Vmin
p2473
sbag2
(g3
g4
NtRp2474
(dp2475
g7
(lp2476
(((lp2477
I4
aI2
aI14
aI13
aI4
aI2
aI4
at(lp2478
I0
aI0
aI0
aI1
aI0
aI0
aI0
atp2479
a(((lp2480
I14
aI7
aI3
aI7
at(lp2481
I0
aI1
aI1
aI1
atp2482
a(((lp2483
I7
aI10
aI9
at(lp2484
I1
aI0
aI1
atp2485
a(((lp2486
I12
aI15
aI14
aI3
at(lp2487
I0
aI1
aI0
aI1
atp2488
a(((lt(ltp2489
a(((lp2490
I5
aI8
aI3
aI0
aI14
at(lp2491
I1
aI0
aI1
aI0
aI0
atp2492
a(((lp2493
I4
aI2
aI5
aI15
at(lp2494
I0
aI0
aI1
aI1
atp2495
a(((lp2496
I8
aI6
aI11
aI2
aI0
at(lp2497
I0
aI0
aI1
aI0
aI0
atp2498
a(((lp2499
I11
aI4
aI3
aI2
aI15
at(lp2500
I1
aI0
aI1
aI0
aI1
atp2501
a(((lp2502
I11
aI7
aI6
aI12
aI1
aI16
aI0
at(lp2503
I1
aI1
aI0
aI0
aI1
aI0
aI0
atp2504
a(((lp2505
I2
aI0
aI14
aI9
at(lp2506
I0
aI0
aI0
aI1
atp2507
a(((lp2508
I10
aI4
aI0
aI0
aI11
at(lp2509
I0
aI0
aI0
aI0
aI1
atp2510
a(((lp2511
I3
at(lp2512
I1
atp2513
asg40
I00
sg41
g2
(g42
g4
NtRp2514
(dp2515
g45
I00
sg46
g47
sg48
(lp2516
g2
(g42
g4
NtRp2517
(dp2518
g45
I00
sg46
g52
sg48
(lp2519
g54
asbag2
(g42
g4
NtRp2520
(dp2521
g45
I00
sg46
g52
sg48
(lp2522
g54
asbasbsg61
(lp2523
I0
aF9.9857142857142858
aF-74.642857142857139
aF-1170.2
aI1
asg46
Vmodulo-k with k=2
p2524
sbag2
(g3
g4
NtRp2525
(dp2526
g7
(lp2527
(((lp2528
I3
aI10
aI11
aI3
aI7
at(lp2529
I0
aI1
aI2
aI0
aI1
atp2530
a(((lt(ltp2531
a(((lp2532
I12
aI16
aI6
at(lp2533
I0
aI1
aI0
atp2534
a(((lp2535
I11
aI16
at(lp2536
I2
aI1
atp2537
a(((lp2538
I6
aI0
aI7
at(lp2539
I0
aI0
aI1
atp2540
a(((lp2541
I0
aI11
aI14
aI8
at(lp2542
I0
aI2
aI2
aI2
atp2543
a(((lp2544
I11
aI6
at(lp2545
I2
aI0
atp2546
a(((lt(ltp2547
a(((lp2548
I13
aI9
aI0
aI7
aI13
at(lp2549
I1
aI0
aI0
aI1
aI1
atp2550
a(((lp2551
I15
at(lp2552
I0
atp2553
a(((lp2554
I3
aI6
aI14
at(lp2555
I0
aI0
aI2
atp2556
a(((lt(ltp2557
a(((lp2558
I13
aI11
aI6
at(lp2559
I1
aI2
aI0
atp2560
asg40
I00
sg41
g2
(g42
g4
NtRp2561
(dp2562
g45
I00
sg46
g47
sg48
(lp2563
g2
(g42
g4
NtRp2564
(dp2565
g45
I00
sg46
g52
sg48
(lp2566
g54
asbag2
(g42
g4
NtRp2567
(dp2568
g45
I00
sg46
g52
sg48
(lp2569
g54
asbasbsg61
(lp2570
I0
aF8.8166666666666664
aF-86.049999999999997
aF-460.25
aI1
asg46
Vmodulo-k with k=3
p2571
sbag2
(g3
g4
NtRp2572
(dp2573
g7
(lp2574
(((lp2575
I3
aI7
aI6
aI2
aI1
at(lp2576
I3
aI2
aI1
aI2
aI1
atp2577
a(((lt(ltp2578
a(((lp2579
I13
aI10
aI15
aI3
at(lp2580
I3
aI0
aI0
aI3
atp2581
a(((lp2582
I11
aI14
aI5
aI11
aI1
aI16
at(lp2583
I1
aI4
aI0
aI1
aI1
aI1
atp2584
a(((lp2585
I4
aI4
aI6
aI7
aI11
aI6
aI2
at(lp2586
I4
aI4
aI1
aI2
aI1
aI1
aI2
atp2587
a(((lp2588
I0
at(lp2589
I0
atp2590
a(((lp2591
I7
aI13
aI10
aI4
aI8
aI11
at(lp2592
I2
aI3
aI0
aI4
aI3
aI1
atp2593
a(((lp2594
I3
aI14
aI15
aI7
aI3
at(lp2595
I3
aI4
aI0
aI2
aI3
atp2596
a(((lp2597
I8
aI13
aI3
aI9
aI0
at(lp2598
I3
aI3
aI3
aI4
aI0
atp2599
a(((lp2600
I4
aI5
aI2
aI10
aI10
aI3
aI11
at(lp2601
I4
aI0
aI2
aI0
aI0
aI3
aI1
atp2602
a(((lp2603
I9
aI4
aI6
aI10
at(lp2604
I4
aI4
aI1
aI0
atp2605
a(((lt(ltp2606
a(((lp2607
I8
aI13
aI6
aI13
aI6
at(lp2608
I3
aI3
aI1
aI3
aI1
atp2609
asg40
I00
sg41
g2
(g42
g4
NtRp2610
(dp2611
g45
I00
sg46
g47
sg48
(lp2612
g2
(g42
g4
NtRp2613
(dp2614
g45
I00
sg46
g52
sg48
(lp2615
g54
asbag2
(g42
g4
NtRp2616
(dp2617
g45
I00
sg46
g52
sg48
(lp2618
g54
asbasbsg61
(lp2619
I0
aF6.0571428571428569
aF-56.321428571428569
aF-674.32142857142856
aI1
asg46
Vmodulo-k with k=5
p2620
sbag2
(g3
g4
NtRp2621
(dp2622
g7
(lp2623
(((lp2624
I3
at(lp2625
I6
atp2626
a(((lp2627
I12
aI10
aI16
aI6
at(lp2628
I24
aI20
aI32
aI12
atp2629
a(((lp2630
I7
aI11
aI7
at(lp2631
I14
aI22
aI14
atp2632
a(((lp2633
I4
at(lp2634
I8
atp2635
a(((lp2636
I13
at(lp2637
I26
atp2638
a(((lp2639
I4
aI4
at(lp2640
I8
aI8
atp2641
a(((lp2642
I2
aI10
aI11
aI5
aI13
at(lp2643
I4
aI20
aI22
aI10
aI26
atp2644
a(((lp2645
I14
aI16
at(lp2646
I28
aI32
atp2647
a(((lp2648
I14
aI1
aI0
aI15
aI1
at(lp2649
I28
aI2
aI0
aI30
aI2
atp2650
a(((lp2651
I8
at(lp2652
I16
atp2653
a(((lp2654
I16
aI5
aI13
aI0
aI5
aI7
at(lp2655
I32
aI10
aI26
aI0
aI10
aI14
atp2656
a(((lp2657
I16
aI14
aI14
aI12
aI3
at(lp2658
I32
aI28
aI28
aI24
aI6
atp2659
a(((lp2660
I2
aI10
aI0
aI1
aI6
aI11
aI7
at(lp2661
I4
aI20
aI0
aI2
aI12
aI22
aI14
atp2662
asg40
I00
sg41
g2
(g42
g4
NtRp2663
(dp2664
g45
I00
sg46
g47
sg48
(lp2665
g2
(g42
g4
NtRp2666
(dp2667
g45
I00
sg46
g52
sg48
(lp2668
g54
asbag2
(g42
g4
NtRp2669
(dp2670
g45
I00
sg46
g52
sg48
(lp2671
g54
asbasbsg61
(lp2672
I0
aF10.497619047619047
aF105.48571428571429
aF2309.485714285714
aI1
asg46
Vmult-k with k=2
p2673
sbag2
(g3
g4
NtRp2674
(dp2675
g7
(lp2676
(((lt(ltp2677
a(((lp2678
I2
aI6
aI4
aI1
aI11
aI15
at(lp2679
I6
aI18
aI12
aI3
aI33
aI45
atp2680
a(((lp2681
I12
aI3
at(lp2682
I36
aI9
atp2683
a(((lp2684
I8
at(lp2685
I24
atp2686
a(((lp2687
I3
aI15
aI9
aI5
at(lp2688
I9
aI45
aI27
aI15
atp2689
a(((lt(ltp2690
a(((lp2691
I7
aI5
aI9
aI5
aI12
at(lp2692
I21
aI15
aI27
aI15
aI36
atp2693
a(((lp2694
I2
aI1
aI8
aI10
at(lp2695
I6
aI3
aI24
aI30
atp2696
a(((lp2697
I6
aI3
aI7
aI3
aI2
at(lp2698
I18
aI9
aI21
aI9
aI6
atp2699
a(((lp2700
I9
aI16
aI13
aI12
aI16
aI8
at(lp2701
I27
aI48
aI39
aI36
aI48
aI24
atp2702
a(((lp2703
I4
aI9
at(lp2704
I12
aI27
atp2705
a(((lp2706
I16
aI7
aI16
at(lp2707
I48
aI21
aI48
atp2708
a(((lp2709
I11
aI7
aI14
at(lp2710
I33
aI21
aI42
atp2711
asg40
I00
sg41
g2
(g42
g4
NtRp2712
(dp2713
g45
I00
sg46
g47
sg48
(lp2714
g2
(g42
g4
NtRp2715
(dp2716
g45
I00
sg46
g52
sg48
(lp2717
g54
asbag2
(g42
g4
NtRp2718
(dp2719
g45
I00
sg46
g52
sg48
(lp2720
g54
asbasbsg61
(lp2721
I0
aF9.2333333333333325
aF179.09999999999999
aF4282
aI1
asg46
Vmult-k with k=3
p2722
sbag2
(g3
g4
NtRp2723
(dp2724
g7
(lp2725
(((lp2726
I10
at(lp2727
I-20
atp2728
a(((lp2729
I3
aI1
aI4
aI15
aI5
aI0
at(lp2730
I-6
aI-2
aI-8
aI-30
aI-10
aI0
atp2731
a(((lp2732
I5
aI11
aI0
aI15
at(lp2733
I-10
aI-22
aI0
aI-30
atp2734
a(((lt(ltp2735
a(((lp2736
I16
aI6
aI13
aI8
aI11
aI10
aI11
at(lp2737
I-32
aI-12
aI-26
aI-16
aI-22
aI-20
aI-22
atp2738
a(((lp2739
I13
at(lp2740
I-26
atp2741
a(((lp2742
I15
aI4
aI5
aI2
aI16
at(lp2743
I-30
aI-8
aI-10
aI-4
aI-32
atp2744
a(((lp2745
I2
aI2
aI11
aI13
at(lp2746
I-4
aI-4
aI-22
aI-26
atp2747
a(((lt(ltp2748
a(((lp2749
I1
at(lp2750
I-2
atp2751
a(((lp2752
I6
aI4
aI15
aI11
aI5
at(lp2753
I-12
aI-8
aI-30
aI-22
aI-10
atp2754
a(((lp2755
I14
at(lp2756
I-28
atp2757
a(((lp2758
I7
aI9
aI10
aI10
aI11
aI14
aI5
at(lp2759
I-14
aI-18
aI-20
aI-20
aI-22
aI-28
aI-10
atp2760
asg40
I00
sg41
g2
(g42
g4
NtRp2761
(dp2762
g45
I00
sg46
g47
sg48
(lp2763
g2
(g42
g4
NtRp2764
(dp2765
g45
I00
sg46
g52
sg48
(lp2766
g54
asbag2
(g42
g4
NtRp2767
(dp2768
g45
I00
sg46
g52
sg48
(lp2769
g54
asbasbsg61
(lp2770
I0
aF10.047619047619047
aF-282.47857142857146
aF2253.6785714285716
aI1
asg46
Vmult-k with k=-2
p2771
sbag2
(g3
g4
NtRp2772
(dp2773
g7
(lp2774
(((lp2775
I12
aI7
aI14
aI7
aI12
aI13
at(lp2776
I12
aI7
aI14
aI7
aI12
aI13
atp2777
a(((lt(ltp2778
a(((lp2779
I3
aI3
aI5
aI1
aI10
at(lp2780
I3
aI3
aI5
aI1
aI10
atp2781
a(((lp2782
I3
aI13
at(lp2783
I3
aI13
atp2784
a(((lp2785
I12
aI14
aI1
aI15
at(lp2786
I12
aI14
aI1
aI15
atp2787
a(((lp2788
I1
at(lp2789
I1
atp2790
a(((lt(ltp2791
a(((lt(ltp2792
a(((lp2793
I12
aI9
aI13
aI4
aI3
aI14
aI4
at(lp2794
I12
aI9
aI13
aI4
aI3
aI14
aI4
atp2795
a(((lp2796
I9
at(lp2797
I9
atp2798
a(((lp2799
I1
aI7
aI5
aI10
aI13
at(lp2800
I1
aI7
aI5
aI10
aI13
atp2801
a(((lp2802
I13
aI9
at(lp2803
I13
aI9
atp2804
a(((lp2805
I5
aI3
at(lp2806
I5
aI3
atp2807
asg40
I00
sg41
g2
(g42
g4
NtRp2808
(dp2809
g45
I00
sg46
g47
sg48
(lp2810
g2
(g42
g4
NtRp2811
(dp2812
g45
I00
sg46
g52
sg48
(lp2813
g54
asbag2
(g42
g4
NtRp2814
(dp2815
g45
I00
sg46
g52
sg48
(lp2816
g54
asbasbsg61
(lp2817
I0
aF0
aF0
aF0
aI1
asg46
Vmult-k with k=1
p2818
sbag2
(g3
g4
NtRp2819
(dp2820
g7
(lp2821
(((lp2822
I1
aI1
aI3
at(lp2823
I1
aI1
aI3
atp2824
a(((lp2825
I2
aI5
aI4
aI2
aI0
aI5
aI1
aI1
at(lp2826
I5
aI5
aI1
aI1
atp2827
a(((lp2828
I16
aI5
aI2
aI15
at(lp2829
I5
aI15
atp2830
a(((lp2831
I6
aI4
aI1
aI5
aI11
aI13
at(lp2832
I1
aI5
aI11
aI13
atp2833
a(((lp2834
I3
at(lp2835
I3
atp2836
a(((lt(ltp2837
a(((lp2838
I15
aI2
aI9
aI2
aI11
at(lp2839
I15
aI9
aI11
atp2840
a(((lt(ltp2841
a(((lp2842
I14
aI7
aI10
aI6
aI1
at(lp2843
I7
aI1
atp2844
a(((lp2845
I13
aI16
aI14
aI10
aI4
at(lp2846
I13
atp2847
a(((lp2848
I8
aI6
aI8
at(ltp2849
a(((lp2850
I15
aI14
aI4
aI0
aI15
aI1
aI10
at(lp2851
I15
aI15
aI1
atp2852
a(((lt(ltp2853
asg40
I00
sg41
g2
(g42
g4
NtRp2854
(dp2855
g45
I00
sg46
g47
sg48
(lp2856
g2
(g42
g4
NtRp2857
(dp2858
g45
I00
sg46
g52
sg48
(lp2859
g54
asbag2
(g42
g4
NtRp2860
(dp2861
g45
I00
sg46
g52
sg48
(lp2862
g54
asbasbsg61
(lp2863
I24
aF4.0464285714285717
aF-1.7285714285714286
aF-531.58095238095245
aI1
asg46
Vodds
p2864
sbag2
(g3
g4
NtRp2865
(dp2866
g7
(lp2867
(((lp2868
I1
aI2
aI3
at(lp2869
I1
aI2
atp2870
a(((lp2871
I0
at(ltp2872
a(((lp2873
I1
aI1
aI2
aI1
at(lp2874
I1
aI1
aI2
atp2875
a(((lp2876
I11
aI0
aI4
aI4
at(lp2877
I11
aI0
aI4
atp2878
a(((lp2879
I13
aI1
aI14
aI2
aI10
aI8
aI0
at(lp2880
I13
aI1
aI14
aI2
aI10
aI8
atp2881
a(((lp2882
I14
aI4
aI6
at(lp2883
I14
aI4
atp2884
a(((lp2885
I5
at(ltp2886
a(((lp2887
I12
aI15
aI11
at(lp2888
I12
aI15
atp2889
a(((lp2890
I7
aI15
aI4
at(lp2891
I7
aI15
atp2892
a(((lp2893
I14
aI14
at(lp2894
I14
atp2895
a(((lp2896
I0
aI3
aI7
aI13
at(lp2897
I0
aI3
aI7
atp2898
a(((lp2899
I10
aI11
at(lp2900
I10
atp2901
a(((lp2902
I11
aI13
aI2
at(lp2903
I11
aI13
atp2904
asg40
I00
sg41
g2
(g42
g4
NtRp2905
(dp2906
g45
I00
sg46
g47
sg48
(lp2907
g2
(g42
g4
NtRp2908
(dp2909
g45
I00
sg46
g52
sg48
(lp2910
g54
asbag2
(g42
g4
NtRp2911
(dp2912
g45
I00
sg46
g52
sg48
(lp2913
g54
asbasbsg61
(lp2914
I13
aF4.5595238095238093
aF0.55952380952381153
aF-237.27380952380949
aI1
asg46
Vpop
p2915
sbag2
(g3
g4
NtRp2916
(dp2917
g7
(lp2918
(((lp2919
I3
at(lp2920
I8
atp2921
a(((lp2922
I4
aI2
aI4
aI10
aI9
at(lp2923
I16
aI4
aI16
aI1024
aI512
atp2924
a(((lp2925
I11
aI8
at(lp2926
I2048
aI256
atp2927
a(((lp2928
I7
aI0
aI10
aI7
at(lp2929
I128
aI1
aI1024
aI128
atp2930
a(((lp2931
I8
aI4
aI0
at(lp2932
I256
aI16
aI1
atp2933
a(((lp2934
I4
aI1
aI4
aI7
at(lp2935
I16
aI2
aI16
aI128
atp2936
a(((lp2937
I7
aI4
aI3
aI6
aI5
aI2
at(lp2938
I128
aI16
aI8
aI64
aI32
aI4
atp2939
a(((lp2940
I10
at(lp2941
I1024
atp2942
a(((lp2943
I0
aI11
aI3
aI11
aI8
aI2
aI1
at(lp2944
I1
aI2048
aI8
aI2048
aI256
aI4
aI2
atp2945
a(((lp2946
I5
aI6
aI6
at(lp2947
I32
aI64
aI64
atp2948
a(((lp2949
I4
aI2
aI10
aI3
aI3
aI3
aI6
at(lp2950
I16
aI4
aI1024
aI8
aI8
aI8
aI64
atp2951
a(((lp2952
I1
aI9
aI1
aI10
at(lp2953
I2
aI512
aI2
aI1024
atp2954
a(((lp2955
I10
aI1
aI8
aI9
aI3
at(lp2956
I1024
aI2
aI256
aI512
aI8
atp2957
asg40
I00
sg41
g2
(g42
g4
NtRp2958
(dp2959
g45
I00
sg46
g47
sg48
(lp2960
g2
(g42
g4
NtRp2961
(dp2962
g45
I00
sg46
g52
sg48
(lp2963
g54
asbag2
(g42
g4
NtRp2964
(dp2965
g45
I00
sg46
g52
sg48
(lp2966
g54
asbasbsg61
(lp2967
I0
aF10.15
aF4502.9666666666662
aF11201115.514285715
aI1
asg46
Vpow-base-k with k=2
p2968
sbag2
(g3
g4
NtRp2969
(dp2970
g7
(lp2971
(((lp2972
I9
aI4
aI6
aI4
aI6
at(lp2973
I19683
aI81
aI729
aI81
aI729
atp2974
a(((lp2975
I0
aI8
aI10
aI3
aI1
aI10
aI3
at(lp2976
I1
aI6561
aI59049
aI27
aI3
aI59049
aI27
atp2977
a(((lp2978
I7
aI6
aI6
aI6
aI7
aI11
at(lp2979
I2187
aI729
aI729
aI729
aI2187
aI177147
atp2980
a(((lp2981
I10
aI7
aI11
aI4
aI10
aI3
at(lp2982
I59049
aI2187
aI177147
aI81
aI59049
aI27
atp2983
a(((lp2984
I9
aI3
aI10
aI4
at(lp2985
I19683
aI27
aI59049
aI81
atp2986
a(((lp2987
I10
aI4
aI10
aI8
at(lp2988
I59049
aI81
aI59049
aI6561
atp2989
a(((lp2990
I1
aI10
aI1
aI2
aI6
at(lp2991
I3
aI59049
aI3
aI9
aI729
atp2992
a(((lt(ltp2993
a(((lp2994
I11
aI8
aI8
aI9
aI10
aI11
at(lp2995
I177147
aI6561
aI6561
aI19683
aI59049
aI177147
atp2996
a(((lp2997
I0
aI2
aI3
aI4
at(lp2998
I1
aI9
aI27
aI81
atp2999
a(((lp3000
I7
aI2
aI4
at(lp3001
I2187
aI9
aI81
atp3002
a(((lp3003
I6
aI4
aI9
aI5
aI1
at(lp3004
I729
aI81
aI19683
aI243
aI3
atp3005
a(((lp3006
I7
aI8
aI8
at(lp3007
I2187
aI6561
aI6561
atp3008
asg40
I00
sg41
g2
(g42
g4
NtRp3009
(dp3010
g45
I00
sg46
g47
sg48
(lp3011
g2
(g42
g4
NtRp3012
(dp3013
g45
I00
sg46
g52
sg48
(lp3014
g54
asbag2
(g42
g4
NtRp3015
(dp3016
g45
I00
sg46
g52
sg48
(lp3017
g54
asbasbsg61
(lp3018
I0
aF9.2452380952380953
aF249463.49761904762
aF96548877841.911896
aI1
asg46
Vpow-base-k with k=3
p3019
sbag2
(g3
g4
NtRp3020
(dp3021
g7
(lp3022
(((lp3023
I7
at(lp3024
I16384
atp3025
a(((lp3026
I11
aI5
aI5
aI9
aI2
aI11
at(lp3027
I4194304
aI1024
aI1024
aI262144
aI16
aI4194304
atp3028
a(((lp3029
I6
aI3
aI10
aI9
aI8
aI11
aI9
at(lp3030
I4096
aI64
aI1048576
aI262144
aI65536
aI4194304
aI262144
atp3031
a(((lp3032
I5
aI10
aI11
aI2
aI3
at(lp3033
I1024
aI1048576
aI4194304
aI16
aI64
atp3034
a(((lp3035
I9
aI11
aI6
aI11
aI2
at(lp3036
I262144
aI4194304
aI4096
aI4194304
aI16
atp3037
a(((lp3038
I11
aI9
aI11
aI2
aI5
at(lp3039
I4194304
aI262144
aI4194304
aI16
aI1024
atp3040
a(((lp3041
I10
aI6
aI7
aI7
at(lp3042
I1048576
aI4096
aI16384
aI16384
atp3043
a(((lp3044
I10
aI8
at(lp3045
I1048576
aI65536
atp3046
a(((lp3047
I8
aI6
aI8
aI3
aI5
aI11
at(lp3048
I65536
aI4096
aI65536
aI64
aI1024
aI4194304
atp3049
a(((lp3050
I0
at(lp3051
I1
atp3052
a(((lp3053
I0
aI5
aI10
at(lp3054
I1
aI1024
aI1048576
atp3055
a(((lp3056
I3
aI8
aI1
aI3
aI3
aI8
aI8
at(lp3057
I64
aI65536
aI4
aI64
aI64
aI65536
aI65536
atp3058
a(((lp3059
I10
aI1
aI11
aI5
aI1
at(lp3060
I1048576
aI4
aI4194304
aI1024
aI4
atp3061
asg40
I00
sg41
g2
(g42
g4
NtRp3062
(dp3063
g45
I00
sg46
g47
sg48
(lp3064
g2
(g42
g4
NtRp3065
(dp3066
g45
I00
sg46
g52
sg48
(lp3067
g54
asbag2
(g42
g4
NtRp3068
(dp3069
g45
I00
sg46
g52
sg48
(lp3070
g54
asbasbsg61
(lp3071
I0
aF10.935714285714285
aF9779344.4142857157
aF120182490906308.77
aI1
asg46
Vpow-base-k with k=4
p3072
sbag2
(g3
g4
NtRp3073
(dp3074
g7
(lp3075
(((lp3076
I4
at(lp3077
I16
atp3078
a(((lp3079
I0
aI10
aI14
aI15
aI0
aI9
at(lp3080
I0
aI100
aI196
aI225
aI0
aI81
atp3081
a(((lp3082
I11
aI6
aI4
aI1
at(lp3083
I121
aI36
aI16
aI1
atp3084
a(((lp3085
I3
aI6
at(lp3086
I9
aI36
atp3087
a(((lp3088
I16
at(lp3089
I256
atp3090
a(((lp3091
I11
aI8
aI9
aI3
aI0
aI16
at(lp3092
I121
aI64
aI81
aI9
aI0
aI256
atp3093
a(((lp3094
I5
aI6
aI0
aI16
aI7
aI11
aI16
at(lp3095
I25
aI36
aI0
aI256
aI49
aI121
aI256
atp3096
a(((lp3097
I3
aI1
aI7
at(lp3098
I9
aI1
aI49
atp3099
a(((lp3100
I8
aI4
aI8
aI8
aI11
aI3
aI0
at(lp3101
I64
aI16
aI64
aI64
aI121
aI9
aI0
atp3102
a(((lp3103
I4
aI2
aI4
aI14
aI0
at(lp3104
I16
aI4
aI16
aI196
aI0
atp3105
a(((lp3106
I1
aI13
at(lp3107
I1
aI169
atp3108
a(((lt(ltp3109
a(((lp3110
I13
at(lp3111
I169
atp3112
asg40
I00
sg41
g2
(g42
g4
NtRp3113
(dp3114
g45
I00
sg46
g47
sg48
(lp3115
g2
(g42
g4
NtRp3116
(dp3117
g45
I00
sg46
g52
sg48
(lp3118
g54
asbag2
(g42
g4
NtRp3119
(dp3120
g45
I00
sg46
g52
sg48
(lp3121
g54
asbasbsg61
(lp3122
I0
aF8.9357142857142868
aF912.3142857142858
aF222899.25714285715
aI1
asg46
Vpow-k with k=2
p3123
sbag2
(g3
g4
NtRp3124
(dp3125
g7
(lp3126
(((lp3127
I13
aI13
aI4
aI2
at(lp3128
I2197
aI2197
aI64
aI8
atp3129
a(((lp3130
I3
aI6
aI5
at(lp3131
I27
aI216
aI125
atp3132
a(((lp3133
I6
aI7
aI7
at(lp3134
I216
aI343
aI343
atp3135
a(((lp3136
I14
aI13
aI16
aI9
at(lp3137
I2744
aI2197
aI4096
aI729
atp3138
a(((lp3139
I13
aI1
aI9
aI5
aI3
aI6
at(lp3140
I2197
aI1
aI729
aI125
aI27
aI216
atp3141
a(((lp3142
I6
aI8
aI10
aI13
aI5
aI3
aI5
at(lp3143
I216
aI512
aI1000
aI2197
aI125
aI27
aI125
atp3144
a(((lp3145
I8
aI4
aI16
aI15
at(lp3146
I512
aI64
aI4096
aI3375
atp3147
a(((lp3148
I9
aI12
aI5
aI6
at(lp3149
I729
aI1728
aI125
aI216
atp3150
a(((lp3151
I8
aI15
aI0
at(lp3152
I512
aI3375
aI0
atp3153
a(((lp3154
I7
aI2
aI6
aI5
at(lp3155
I343
aI8
aI216
aI125
atp3156
a(((lp3157
I8
at(lp3158
I512
atp3159
a(((lp3160
I16
aI2
aI10
aI6
at(lp3161
I4096
aI8
aI1000
aI216
atp3162
a(((lp3163
I4
aI0
aI13
aI7
aI0
at(lp3164
I64
aI0
aI2197
aI343
aI0
atp3165
asg40
I00
sg41
g2
(g42
g4
NtRp3166
(dp3167
g45
I00
sg46
g47
sg48
(lp3168
g2
(g42
g4
NtRp3169
(dp3170
g45
I00
sg46
g52
sg48
(lp3171
g54
asbag2
(g42
g4
NtRp3172
(dp3173
g45
I00
sg46
g52
sg48
(lp3174
g54
asbasbsg61
(lp3175
I0
aF11.373809523809523
aF11575.142857142857
aF52663140.571428567
aI1
asg46
Vpow-k with k=3
p3176
sbag2
(g3
g4
NtRp3177
(dp3178
g7
(lp3179
(((lt(ltp3180
a(((lp3181
I4
at(lp3182
I256
atp3183
a(((lp3184
I15
aI8
aI10
aI10
at(lp3185
I50625
aI4096
aI10000
aI10000
atp3186
a(((lp3187
I9
aI9
aI2
aI16
aI15
at(lp3188
I6561
aI6561
aI16
aI65536
aI50625
atp3189
a(((lp3190
I13
aI12
aI11
aI2
aI3
aI13
at(lp3191
I28561
aI20736
aI14641
aI16
aI81
aI28561
atp3192
a(((lp3193
I12
aI8
aI8
at(lp3194
I20736
aI4096
aI4096
atp3195
a(((lp3196
I2
aI8
aI9
aI1
at(lp3197
I16
aI4096
aI6561
aI1
atp3198
a(((lp3199
I14
aI6
at(lp3200
I38416
aI1296
atp3201
a(((lp3202
I11
aI4
aI2
aI5
aI0
aI9
at(lp3203
I14641
aI256
aI16
aI625
aI0
aI6561
atp3204
a(((lp3205
I13
aI14
aI16
aI10
aI14
aI10
aI12
at(lp3206
I28561
aI38416
aI65536
aI10000
aI38416
aI10000
aI20736
atp3207
a(((lp3208
I8
aI4
aI13
aI13
aI9
aI15
at(lp3209
I4096
aI256
aI28561
aI28561
aI6561
aI50625
atp3210
a(((lp3211
I14
aI3
aI2
aI11
aI5
at(lp3212
I38416
aI81
aI16
aI14641
aI625
atp3213
a(((lp3214
I14
aI9
aI13
aI2
aI16
aI1
aI9
at(lp3215
I38416
aI6561
aI28561
aI16
aI65536
aI1
aI6561
atp3216
asg40
I00
sg41
g2
(g42
g4
NtRp3217
(dp3218
g45
I00
sg46
g47
sg48
(lp3219
g2
(g42
g4
NtRp3220
(dp3221
g45
I00
sg46
g52
sg48
(lp3222
g54
asbag2
(g42
g4
NtRp3223
(dp3224
g45
I00
sg46
g52
sg48
(lp3225
g54
asbasbsg61
(lp3226
I0
aF9.5523809523809522
aF177554.16190476189
aF15865870037.419044
aI1
asg46
Vpow-k with k=4
p3227
sbag2
(g3
g4
NtRp3228
(dp3229
g7
(lp3230
(((lp3231
I11
aI6
aI14
aI8
at(lp3232
I6
aI11
aI6
aI14
aI8
atp3233
a(((lp3234
I14
aI4
aI8
aI8
aI2
aI9
aI0
at(lp3235
I4
aI14
aI4
aI8
aI8
aI2
aI9
aI0
atp3236
a(((lp3237
I2
aI3
aI0
aI5
aI15
aI13
at(lp3238
I3
aI2
aI3
aI0
aI5
aI15
aI13
atp3239
a(((lp3240
I3
aI5
aI3
aI15
aI14
at(lp3241
I5
aI3
aI5
aI3
aI15
aI14
atp3242
a(((lp3243
I13
aI8
aI2
aI1
aI4
aI7
aI14
aI8
at(lp3244
I8
aI13
aI8
aI2
aI1
aI4
aI7
aI14
aI8
atp3245
a(((lp3246
I8
aI7
aI13
aI6
aI11
at(lp3247
I7
aI8
aI7
aI13
aI6
aI11
atp3248
a(((lp3249
I14
aI2
aI3
at(lp3250
I2
aI14
aI2
aI3
atp3251
a(((lp3252
I14
aI1
aI16
at(lp3253
I1
aI14
aI1
aI16
atp3254
a(((lp3255
I7
aI5
aI15
aI8
aI8
aI11
aI7
at(lp3256
I5
aI7
aI5
aI15
aI8
aI8
aI11
aI7
atp3257
a(((lp3258
I1
aI3
aI3
aI7
aI10
aI11
at(lp3259
I3
aI1
aI3
aI3
aI7
aI10
aI11
atp3260
a(((lp3261
I4
aI8
aI5
aI15
at(lp3262
I8
aI4
aI8
aI5
aI15
atp3263
a(((lp3264
I4
aI9
aI7
aI6
aI6
aI10
aI1
aI12
at(lp3265
I9
aI4
aI9
aI7
aI6
aI6
aI10
aI1
aI12
atp3266
a(((lp3267
I1
aI16
aI9
aI15
aI12
aI16
aI13
aI2
aI10
at(lp3268
I16
aI1
aI16
aI9
aI15
aI12
aI16
aI13
aI2
aI10
atp3269
asg40
I00
sg41
g2
(g42
g4
NtRp3270
(dp3271
g45
I00
sg46
g47
sg48
(lp3272
g2
(g42
g4
NtRp3273
(dp3274
g45
I00
sg46
g52
sg48
(lp3275
g54
asbag2
(g42
g4
NtRp3276
(dp3277
g45
I00
sg46
g52
sg48
(lp3278
g54
asbasbsg61
(lp3279
I-13
aF0
aF-5.7599206349206353
aF167.60912698412693
aI1
asg46
Vprepend-index-k with k=2
p3280
sbag2
(g3
g4
NtRp3281
(dp3282
g7
(lp3283
(((lp3284
I7
aI8
aI9
aI13
at(lp3285
I9
aI7
aI8
aI9
aI13
atp3286
a(((lp3287
I3
aI12
aI16
aI1
aI2
aI3
aI3
aI4
aI2
aI1
at(lp3288
I16
aI3
aI12
aI16
aI1
aI2
aI3
aI3
aI4
aI2
aI1
atp3289
a(((lp3290
I0
aI11
aI5
aI10
aI7
at(lp3291
I5
aI0
aI11
aI5
aI10
aI7
atp3292
a(((lp3293
I2
aI12
aI3
aI1
aI14
aI2
aI0
aI3
aI9
at(lp3294
I3
aI2
aI12
aI3
aI1
aI14
aI2
aI0
aI3
aI9
atp3295
a(((lp3296
I2
aI6
aI10
aI11
aI4
aI2
aI11
aI6
aI0
aI1
at(lp3297
I10
aI2
aI6
aI10
aI11
aI4
aI2
aI11
aI6
aI0
aI1
atp3298
a(((lp3299
I16
aI2
aI10
aI10
aI15
aI12
aI14
at(lp3300
I10
aI16
aI2
aI10
aI10
aI15
aI12
aI14
atp3301
a(((lp3302
I14
aI5
aI11
aI10
aI11
aI3
at(lp3303
I11
aI14
aI5
aI11
aI10
aI11
aI3
atp3304
a(((lp3305
I8
aI13
aI14
aI1
aI2
aI8
aI9
at(lp3306
I14
aI8
aI13
aI14
aI1
aI2
aI8
aI9
atp3307
a(((lp3308
I6
aI13
aI0
aI6
aI16
aI1
aI0
aI14
aI10
aI15
at(lp3309
I0
aI6
aI13
aI0
aI6
aI16
aI1
aI0
aI14
aI10
aI15
atp3310
a(((lp3311
I0
aI16
aI5
aI10
aI16
aI8
aI16
aI11
at(lp3312
I5
aI0
aI16
aI5
aI10
aI16
aI8
aI16
aI11
atp3313
a(((lp3314
I16
aI9
aI7
at(lp3315
I7
aI16
aI9
aI7
atp3316
a(((lp3317
I3
aI10
aI16
aI8
at(lp3318
I16
aI3
aI10
aI16
aI8
atp3319
a(((lp3320
I8
aI4
aI5
aI9
aI7
aI16
aI8
aI9
at(lp3321
I5
aI8
aI4
aI5
aI9
aI7
aI16
aI8
aI9
atp3322
asg40
I00
sg41
g2
(g42
g4
NtRp3323
(dp3324
g45
I00
sg46
g47
sg48
(lp3325
g2
(g42
g4
NtRp3326
(dp3327
g45
I00
sg46
g52
sg48
(lp3328
g54
asbag2
(g42
g4
NtRp3329
(dp3330
g45
I00
sg46
g52
sg48
(lp3331
g54
asbasbsg61
(lp3332
I-13
aF0
aF0.57215007215007319
aF320.31861471861475
aI1
asg46
Vprepend-index-k with k=3
p3333
sbag2
(g3
g4
NtRp3334
(dp3335
g7
(lp3336
(((lp3337
I1
at(lp3338
I2
aI1
atp3339
a(((lp3340
I16
aI10
at(lp3341
I2
aI16
aI10
atp3342
a(((lp3343
I0
aI1
aI2
aI10
aI7
aI0
at(lp3344
I2
aI0
aI1
aI2
aI10
aI7
aI0
atp3345
a(((lp3346
I6
aI11
aI5
at(lp3347
I2
aI6
aI11
aI5
atp3348
a(((lp3349
I4
aI14
aI6
at(lp3350
I2
aI4
aI14
aI6
atp3351
a(((lp3352
I5
at(lp3353
I2
aI5
atp3354
a(((lt(lp3355
I2
atp3356
a(((lp3357
I10
aI0
aI6
aI4
aI13
at(lp3358
I2
aI10
aI0
aI6
aI4
aI13
atp3359
a(((lp3360
I9
aI3
aI4
at(lp3361
I2
aI9
aI3
aI4
atp3362
a(((lp3363
I0
aI10
aI5
aI9
aI0
aI12
aI9
at(lp3364
I2
aI0
aI10
aI5
aI9
aI0
aI12
aI9
atp3365
a(((lp3366
I10
aI6
at(lp3367
I2
aI10
aI6
atp3368
a(((lp3369
I4
aI9
aI13
aI1
aI9
at(lp3370
I2
aI4
aI9
aI13
aI1
aI9
atp3371
a(((lt(lp3372
I2
atp3373
asg40
I00
sg41
g2
(g42
g4
NtRp3374
(dp3375
g45
I00
sg46
g47
sg48
(lp3376
g2
(g42
g4
NtRp3377
(dp3378
g45
I00
sg46
g52
sg48
(lp3379
g54
asbag2
(g42
g4
NtRp3380
(dp3381
g45
I00
sg46
g52
sg48
(lp3382
g54
asbasbsg61
(lp3383
I-13
aF0
aF-8.7107142857142854
aF225.18452380952382
aI1
asg46
Vprepend-k with k=2
p3384
sbag2
(g3
g4
NtRp3385
(dp3386
g7
(lp3387
(((lp3388
I8
aI12
aI14
aI9
at(lp3389
I3
aI8
aI12
aI14
aI9
atp3390
a(((lp3391
I14
aI10
aI1
at(lp3392
I3
aI14
aI10
aI1
atp3393
a(((lp3394
I8
at(lp3395
I3
aI8
atp3396
a(((lp3397
I3
aI13
aI9
aI1
aI4
aI12
at(lp3398
I3
aI3
aI13
aI9
aI1
aI4
aI12
atp3399
a(((lp3400
I15
aI2
aI12
at(lp3401
I3
aI15
aI2
aI12
atp3402
a(((lp3403
I13
at(lp3404
I3
aI13
atp3405
a(((lp3406
I11
aI9
aI2
aI6
at(lp3407
I3
aI11
aI9
aI2
aI6
atp3408
a(((lp3409
I16
aI15
aI16
aI11
aI4
aI9
aI2
at(lp3410
I3
aI16
aI15
aI16
aI11
aI4
aI9
aI2
atp3411
a(((lp3412
I15
aI9
aI15
aI6
aI13
aI11
aI13
at(lp3413
I3
aI15
aI9
aI15
aI6
aI13
aI11
aI13
atp3414
a(((lp3415
I8
aI14
aI10
aI2
aI11
aI0
at(lp3416
I3
aI8
aI14
aI10
aI2
aI11
aI0
atp3417
a(((lp3418
I12
aI12
aI10
at(lp3419
I3
aI12
aI12
aI10
atp3420
a(((lt(lp3421
I3
atp3422
a(((lp3423
I5
aI5
aI5
at(lp3424
I3
aI5
aI5
aI5
atp3425
asg40
I00
sg41
g2
(g42
g4
NtRp3426
(dp3427
g45
I00
sg46
g47
sg48
(lp3428
g2
(g42
g4
NtRp3429
(dp3430
g45
I00
sg46
g52
sg48
(lp3431
g54
asbag2
(g42
g4
NtRp3432
(dp3433
g45
I00
sg46
g52
sg48
(lp3434
g54
asbasbsg61
(lp3435
I-13
aF0
aF-15.665476190476191
aF378.90357142857135
aI1
asg46
Vprepend-k with k=3
p3436
sbag2
(g3
g4
NtRp3437
(dp3438
g7
(lp3439
(((lp3440
I4
aI13
aI10
at(lp3441
I-2
aI4
aI13
aI10
atp3442
a(((lp3443
I5
aI12
aI12
aI4
aI1
aI9
at(lp3444
I-2
aI5
aI12
aI12
aI4
aI1
aI9
atp3445
a(((lp3446
I16
aI11
aI13
aI2
aI2
aI13
at(lp3447
I-2
aI16
aI11
aI13
aI2
aI2
aI13
atp3448
a(((lp3449
I9
aI7
aI11
aI6
aI3
aI12
aI13
at(lp3450
I-2
aI9
aI7
aI11
aI6
aI3
aI12
aI13
atp3451
a(((lp3452
I2
at(lp3453
I-2
aI2
atp3454
a(((lp3455
I8
aI14
aI2
at(lp3456
I-2
aI8
aI14
aI2
atp3457
a(((lp3458
I15
at(lp3459
I-2
aI15
atp3460
a(((lt(lp3461
I-2
atp3462
a(((lp3463
I8
aI15
aI9
aI16
at(lp3464
I-2
aI8
aI15
aI9
aI16
atp3465
a(((lp3466
I9
aI6
aI14
aI12
aI8
aI3
aI7
at(lp3467
I-2
aI9
aI6
aI14
aI12
aI8
aI3
aI7
atp3468
a(((lt(lp3469
I-2
atp3470
a(((lp3471
I8
aI5
aI16
at(lp3472
I-2
aI8
aI5
aI16
atp3473
a(((lp3474
I16
aI13
aI10
at(lp3475
I-2
aI16
aI13
aI10
atp3476
asg40
I00
sg41
g2
(g42
g4
NtRp3477
(dp3478
g45
I00
sg46
g47
sg48
(lp3479
g2
(g42
g4
NtRp3480
(dp3481
g45
I00
sg46
g52
sg48
(lp3482
g54
asbag2
(g42
g4
NtRp3483
(dp3484
g45
I00
sg46
g52
sg48
(lp3485
g54
asbasbsg61
(lp3486
I-13
aF0
aF-34.811904761904763
aF1126.8714285714286
aI1
asg46
Vprepend-k with k=-2
p3487
sbag2
(g3
g4
NtRp3488
(dp3489
g7
(lp3490
(((lp3491
I6
aI11
aI3
aI15
aI14
aI6
aI3
at(lp3492
I7
aI6
aI11
aI3
aI15
aI14
aI6
aI3
atp3493
a(((lp3494
I16
aI7
aI10
aI1
aI14
at(lp3495
I7
aI16
aI7
aI10
aI1
aI14
atp3496
a(((lp3497
I12
aI5
aI11
aI3
at(lp3498
I7
aI12
aI5
aI11
aI3
atp3499
a(((lt(lp3500
I7
atp3501
a(((lp3502
I9
aI8
aI5
aI1
at(lp3503
I7
aI9
aI8
aI5
aI1
atp3504
a(((lp3505
I16
aI12
aI2
aI2
at(lp3506
I7
aI16
aI12
aI2
aI2
atp3507
a(((lp3508
I13
aI15
aI10
aI7
aI12
aI11
aI14
at(lp3509
I7
aI13
aI15
aI10
aI7
aI12
aI11
aI14
atp3510
a(((lp3511
I15
aI9
aI5
aI9
at(lp3512
I7
aI15
aI9
aI5
aI9
atp3513
a(((lp3514
I0
aI4
aI10
at(lp3515
I7
aI0
aI4
aI10
atp3516
a(((lp3517
I16
aI15
aI8
at(lp3518
I7
aI16
aI15
aI8
atp3519
a(((lp3520
I9
aI15
aI9
at(lp3521
I7
aI9
aI15
aI9
atp3522
a(((lt(lp3523
I7
atp3524
a(((lp3525
I15
aI8
aI13
aI5
aI5
aI5
aI4
at(lp3526
I7
aI15
aI8
aI13
aI5
aI5
aI5
aI4
atp3527
asg40
I00
sg41
g2
(g42
g4
NtRp3528
(dp3529
g45
I00
sg46
g47
sg48
(lp3530
g2
(g42
g4
NtRp3531
(dp3532
g45
I00
sg46
g52
sg48
(lp3533
g54
asbag2
(g42
g4
NtRp3534
(dp3535
g45
I00
sg46
g52
sg48
(lp3536
g54
asbasbsg61
(lp3537
I-13
aF0
aF10.192857142857143
aF77.752380952380932
aI1
asg46
Vprepend-k with k=7
p3538
sbag2
(g3
g4
NtRp3539
(dp3540
g7
(lp3541
(((lp3542
I1
aI2
aI3
atI6
tp3543
a(((lp3544
I0
atI0
tp3545
a(((lp3546
I1
aI1
aI2
aI1
atI2
tp3547
a(((lp3548
I3
aI1
aI9
aI10
aI14
atI3780
tp3549
a(((lp3550
I11
aI11
aI2
aI3
aI13
atI9438
tp3551
a(((lp3552
I10
aI14
aI1
atI140
tp3553
a(((lp3554
I6
aI10
aI9
aI6
atI3240
tp3555
a(((lp3556
I15
aI15
aI13
aI15
aI4
aI15
atI2632500
tp3557
a(((lp3558
I6
aI15
atI90
tp3559
a(((lp3560
I0
aI12
aI14
aI3
aI0
aI1
atI0
tp3561
a(((lp3562
I7
atI7
tp3563
a(((lp3564
I4
aI13
aI12
aI14
aI0
aI10
aI10
atI0
tp3565
a(((lp3566
I9
aI9
aI7
atI567
tp3567
asg40
I00
sg41
g2
(g42
g4
NtRp3568
(dp3569
g45
I00
sg46
g47
sg48
(lp3570
g2
(g42
g4
NtRp3571
(dp3572
g45
I00
sg46
g52
sg48
(lp3573
g54
asbag54
asbsg61
(lp3574
I50
aF8.3476190476190482
aF2649682.5999999996
aF819.36666666666667
aI0
asg46
Vproduct
p3575
sbag2
(g3
g4
NtRp3576
(dp3577
g7
(lp3578
(((lp3579
I0
at(ltp3580
a(((lp3581
I1
at(lp3582
I0
atp3583
a(((lp3584
I2
at(lp3585
I0
aI1
atp3586
a(((lp3587
I3
at(lp3588
I0
aI1
aI2
atp3589
a(((lp3590
I7
at(lp3591
I0
aI1
aI2
aI3
aI4
aI5
aI6
atp3592
a(((lp3593
I8
at(lp3594
I0
aI1
aI2
aI3
aI4
aI5
aI6
aI7
atp3595
a(((lp3596
I4
at(lp3597
I0
aI1
aI2
aI3
atp3598
a(((lp3599
I2
at(lp3600
I0
aI1
atp3601
a(((lp3602
I6
at(lp3603
I0
aI1
aI2
aI3
aI4
aI5
atp3604
a(((lp3605
I9
at(lp3606
I0
aI1
aI2
aI3
aI4
aI5
aI6
aI7
aI8
atp3607
a(((lp3608
I3
at(lp3609
I0
aI1
aI2
atp3610
a(((lp3611
I8
at(lp3612
I0
aI1
aI2
aI3
aI4
aI5
aI6
aI7
atp3613
a(((lp3614
I9
at(lp3615
I0
aI1
aI2
aI3
aI4
aI5
aI6
aI7
aI8
atp3616
asg40
I00
sg41
g2
(g42
g4
NtRp3617
(dp3618
g45
I00
sg46
g47
sg48
(lp3619
g2
(g42
g4
NtRp3620
(dp3621
g45
I00
sg46
g52
sg48
(lp3622
g54
asbag2
(g42
g4
NtRp3623
(dp3624
g45
I00
sg46
g52
sg48
(lp3625
g54
asbasbsg61
(lp3626
I-49
aF13
aF-37
aF259.5
aI1
asg46
Vrange
p3627
sbag2
(g3
g4
NtRp3628
(dp3629
g7
(lp3630
(((lp3631
I12
aI13
aI1
aI7
aI16
aI12
at(lp3632
I12
aI1
aI7
aI16
aI12
atp3633
a(((lp3634
I15
aI10
aI13
aI2
aI0
aI4
aI11
at(lp3635
I15
aI13
aI2
aI0
aI4
aI11
atp3636
a(((lp3637
I6
aI10
aI7
aI0
at(lp3638
I6
aI7
aI0
atp3639
a(((lp3640
I8
aI14
aI16
aI0
at(lp3641
I8
aI16
aI0
atp3642
a(((lp3643
I1
aI0
aI6
aI1
aI10
aI13
aI2
aI16
at(lp3644
I1
aI6
aI1
aI10
aI13
aI2
aI16
atp3645
a(((lp3646
I15
aI14
aI0
aI3
at(lp3647
I15
aI0
aI3
atp3648
a(((lp3649
I12
aI16
at(lp3650
I12
atp3651
a(((lp3652
I9
aI2
aI2
aI10
aI11
aI9
aI12
at(lp3653
I9
aI2
aI10
aI11
aI9
aI12
atp3654
a(((lp3655
I5
aI4
aI15
aI6
aI11
aI11
aI16
at(lp3656
I5
aI15
aI6
aI11
aI11
aI16
atp3657
a(((lp3658
I16
aI14
aI12
aI2
aI0
aI14
aI7
at(lp3659
I16
aI12
aI2
aI0
aI14
aI7
atp3660
a(((lp3661
I14
aI11
aI1
at(lp3662
I14
aI1
atp3663
a(((lp3664
I14
aI15
aI1
aI2
aI9
aI0
aI10
aI3
at(lp3665
I14
aI1
aI2
aI9
aI0
aI10
aI3
atp3666
a(((lp3667
I2
aI11
aI8
at(lp3668
I2
aI8
atp3669
asg40
I00
sg41
g2
(g42
g4
NtRp3670
(dp3671
g45
I00
sg46
g47
sg48
(lp3672
g2
(g42
g4
NtRp3673
(dp3674
g45
I00
sg46
g52
sg48
(lp3675
g54
asbag2
(g42
g4
NtRp3676
(dp3677
g45
I00
sg46
g52
sg48
(lp3678
g54
asbasbsg61
(lp3679
I13
aF2.6190476190476191
aF-10.167857142857141
aF-378.94880952380959
aI1
asg46
Vremove-index-k with k=2
p3680
sbag2
(g3
g4
NtRp3681
(dp3682
g7
(lp3683
(((lp3684
I10
aI14
aI8
aI11
aI8
aI0
aI0
aI1
at(lp3685
I10
aI14
aI11
aI8
aI0
aI0
aI1
atp3686
a(((lp3687
I14
aI7
aI4
aI1
aI2
aI3
aI2
aI4
at(lp3688
I14
aI7
aI1
aI2
aI3
aI2
aI4
atp3689
a(((lp3690
I8
aI9
aI7
aI8
aI13
aI5
aI10
at(lp3691
I8
aI9
aI8
aI13
aI5
aI10
atp3692
a(((lp3693
I1
aI6
aI6
aI2
aI7
aI5
aI11
at(lp3694
I1
aI6
aI2
aI7
aI5
aI11
atp3695
a(((lp3696
I12
aI2
aI11
aI11
aI2
aI8
aI16
aI0
at(lp3697
I12
aI2
aI11
aI2
aI8
aI16
aI0
atp3698
a(((lp3699
I4
aI7
aI5
aI7
aI6
aI8
aI6
aI8
at(lp3700
I4
aI7
aI7
aI6
aI8
aI6
aI8
atp3701
a(((lp3702
I15
aI2
aI11
aI2
aI10
aI14
at(lp3703
I15
aI2
aI2
aI10
aI14
atp3704
a(((lp3705
I9
aI3
aI13
aI5
aI11
aI6
aI14
aI2
aI9
aI1
at(lp3706
I9
aI3
aI5
aI11
aI6
aI14
aI2
aI9
aI1
atp3707
a(((lp3708
I6
aI1
aI13
aI3
aI13
at(lp3709
I6
aI1
aI3
aI13
atp3710
a(((lp3711
I2
aI11
aI5
aI15
aI13
at(lp3712
I2
aI11
aI15
aI13
atp3713
a(((lp3714
I10
aI5
aI3
at(lp3715
I10
aI5
atp3716
a(((lp3717
I13
aI3
aI16
aI16
aI8
aI12
aI12
aI15
at(lp3718
I13
aI3
aI16
aI8
aI12
aI12
aI15
atp3719
a(((lp3720
I6
aI5
aI7
aI16
aI8
aI13
aI5
at(lp3721
I6
aI5
aI16
aI8
aI13
aI5
atp3722
asg40
I00
sg41
g2
(g42
g4
NtRp3723
(dp3724
g45
I00
sg46
g47
sg48
(lp3725
g2
(g42
g4
NtRp3726
(dp3727
g45
I00
sg46
g52
sg48
(lp3728
g54
asbag2
(g42
g4
NtRp3729
(dp3730
g45
I00
sg46
g52
sg48
(lp3731
g54
asbasbsg61
(lp3732
I13
aF1.2107142857142856
aF-0.48690476190475973
aF-161.33928571428572
aI1
asg46
Vremove-index-k with k=3
p3733
sbag2
(g3
g4
NtRp3734
(dp3735
g7
(lp3736
(((lp3737
I3
aI1
aI3
aI4
aI7
aI6
aI9
aI2
at(lp3738
I1
aI4
aI7
aI2
atp3739
a(((lp3740
I4
aI2
aI6
aI10
aI8
aI12
at(lp3741
I2
aI6
aI10
atp3742
a(((lp3743
I1
aI2
aI3
at(ltp3744
a(((lp3745
I4
aI8
aI0
aI13
aI12
aI14
aI8
aI36
at(lp3746
I13
aI14
atp3747
a(((lp3748
I9
aI6
aI27
aI0
aI72
aI8
aI54
at(lp3749
I6
aI8
atp3750
a(((lp3751
I6
aI18
at(ltp3752
a(((lp3753
I8
aI12
aI9
at(lp3754
I12
aI9
atp3755
a(((lp3756
I4
aI4
aI0
aI28
at(ltp3757
a(((lp3758
I1
aI4
aI10
aI12
aI8
at(ltp3759
a(((lp3760
I5
aI1
aI16
aI16
aI3
aI8
aI3
aI8
at(lp3761
I1
aI16
aI16
aI3
aI8
aI3
aI8
atp3762
a(((lp3763
I8
aI7
at(lp3764
I7
atp3765
a(((lp3766
I7
aI14
aI11
aI15
aI6
at(lp3767
I11
aI15
aI6
atp3768
a(((lp3769
I2
aI6
at(ltp3770
asg40
I00
sg41
g2
(g42
g4
NtRp3771
(dp3772
g45
I00
sg46
g47
sg48
(lp3773
g2
(g42
g4
NtRp3774
(dp3775
g45
I00
sg46
g52
sg48
(lp3776
g54
asbag2
(g42
g4
NtRp3777
(dp3778
g45
I00
sg46
g52
sg48
(lp3779
g54
asbasbsg61
(lp3780
I39
aF8.3226190476190478
aF-51.635714285714286
aF-6162.4500000000007
aI1
asg46
Vremove-mod-head
p3781
sbag2
(g3
g4
NtRp3782
(dp3783
g7
(lp3784
(((lt(ltp3785
a(((lp3786
I1
aI7
aI0
aI4
aI0
aI4
aI3
at(lp3787
I1
aI7
aI3
atp3788
a(((lp3789
I11
aI7
aI1
aI6
aI14
aI1
at(lp3790
I11
aI7
aI1
aI1
atp3791
a(((lp3792
I7
at(lp3793
I7
atp3794
a(((lp3795
I1
aI7
aI9
aI16
aI11
at(lp3796
I1
aI7
aI9
aI11
atp3797
a(((lp3798
I8
at(ltp3799
a(((lt(ltp3800
a(((lp3801
I3
aI14
at(lp3802
I3
atp3803
a(((lp3804
I8
aI2
aI9
aI16
aI8
aI6
at(lp3805
I9
atp3806
a(((lt(ltp3807
a(((lp3808
I10
aI2
aI7
aI4
aI16
aI16
aI0
at(lp3809
I7
atp3810
a(((lp3811
I3
aI15
aI13
aI12
at(lp3812
I3
aI15
aI13
atp3813
a(((lp3814
I9
aI7
aI12
aI8
at(lp3815
I9
aI7
atp3816
asg40
I00
sg41
g2
(g42
g4
NtRp3817
(dp3818
g45
I00
sg46
g47
sg48
(lp3819
g2
(g42
g4
NtRp3820
(dp3821
g45
I00
sg46
g52
sg48
(lp3822
g54
asbag2
(g42
g4
NtRp3823
(dp3824
g45
I00
sg46
g52
sg48
(lp3825
g54
asbasbsg61
(lp3826
I23
aF4.4499999999999993
aF-17.454761904761902
aF-579.16904761904755
aI1
asg46
Vremove-mod-k with k=2
p3827
sbag2
(g3
g4
NtRp3828
(dp3829
g7
(lp3830
(((lp3831
I9
aI3
aI12
aI24
aI15
at(ltp3832
a(((lp3833
I11
aI12
at(lp3834
I11
atp3835
a(((lt(ltp3836
a(((lp3837
I10
aI5
aI2
aI9
aI3
at(lp3838
I10
aI5
aI2
atp3839
a(((lp3840
I9
aI27
aI11
at(lp3841
I11
atp3842
a(((lp3843
I13
aI1
at(lp3844
I13
aI1
atp3845
a(((lp3846
I21
aI0
at(ltp3847
a(((lp3848
I12
aI8
aI6
aI10
aI6
aI5
aI6
at(lp3849
I8
aI10
aI5
atp3850
a(((lt(ltp3851
a(((lp3852
I6
aI16
aI12
at(lp3853
I16
atp3854
a(((lp3855
I0
at(ltp3856
a(((lp3857
I3
aI15
aI9
aI6
aI7
aI11
at(lp3858
I7
aI11
atp3859
a(((lp3860
I16
aI9
aI4
at(lp3861
I16
aI4
atp3862
asg40
I00
sg41
g2
(g42
g4
NtRp3863
(dp3864
g45
I00
sg46
g47
sg48
(lp3865
g2
(g42
g4
NtRp3866
(dp3867
g45
I00
sg46
g52
sg48
(lp3868
g54
asbag2
(g42
g4
NtRp3869
(dp3870
g45
I00
sg46
g52
sg48
(lp3871
g54
asbasbsg61
(lp3872
I24
aF6.519047619047619
aF-22.804761904761904
aF-832.88095238095229
aI1
asg46
Vremove-mod-k with k=3
p3873
sbag2
(g3
g4
NtRp3874
(dp3875
g7
(lp3876
(((lp3877
I20
aI45
aI45
at(ltp3878
a(((lp3879
I8
aI15
at(lp3880
I8
atp3881
a(((lt(ltp3882
a(((lp3883
I15
aI20
aI5
aI0
aI8
aI25
aI0
at(lp3884
I8
atp3885
a(((lt(ltp3886
a(((lp3887
I5
aI14
aI13
aI8
aI5
aI11
at(lp3888
I14
aI13
aI8
aI11
atp3889
a(((lp3890
I15
aI4
aI40
at(lp3891
I4
atp3892
a(((lp3893
I11
aI7
aI25
aI10
aI45
at(lp3894
I11
aI7
atp3895
a(((lp3896
I5
at(ltp3897
a(((lp3898
I25
aI0
aI15
aI45
aI13
at(lp3899
I13
atp3900
a(((lp3901
I12
aI12
aI7
aI14
aI1
at(lp3902
I12
aI12
aI7
aI14
aI1
atp3903
a(((lp3904
I15
aI9
aI6
at(lp3905
I9
aI6
atp3906
a(((lp3907
I10
aI8
aI3
at(lp3908
I8
aI3
atp3909
asg40
I00
sg41
g2
(g42
g4
NtRp3910
(dp3911
g45
I00
sg46
g47
sg48
(lp3912
g2
(g42
g4
NtRp3913
(dp3914
g45
I00
sg46
g52
sg48
(lp3915
g54
asbag2
(g42
g4
NtRp3916
(dp3917
g45
I00
sg46
g52
sg48
(lp3918
g54
asbasbsg61
(lp3919
I24
aF5.78095238095238
aF-82.295238095238091
aF-3921.2809523809519
aI1
asg46
Vremove-mod-k with k=5
p3920
sbag2
(g3
g4
NtRp3921
(dp3922
g7
(lp3923
(((lp3924
I1
aI1
at(lp3925
I1
atp3926
a(((lp3927
I1
aI2
at(lp3928
I2
atp3929
a(((lp3930
I1
aI3
at(lp3931
I3
atp3932
a(((lp3933
I2
aI1
at(lp3934
I1
aI1
atp3935
a(((lp3936
I2
aI3
at(lp3937
I3
aI3
atp3938
a(((lp3939
I3
aI7
at(lp3940
I7
aI7
aI7
atp3941
a(((lp3942
I6
aI13
at(lp3943
I13
aI13
aI13
aI13
aI13
aI13
atp3944
a(((lp3945
I0
aI2
at(ltp3946
a(((lp3947
I5
aI5
at(lp3948
I5
aI5
aI5
aI5
aI5
atp3949
a(((lp3950
I0
aI1
at(ltp3951
a(((lp3952
I1
aI0
at(lp3953
I0
atp3954
a(((lp3955
I7
aI6
at(lp3956
I6
aI6
aI6
aI6
aI6
aI6
aI6
atp3957
a(((lp3958
I5
aI0
at(lp3959
I0
aI0
aI0
aI0
aI0
atp3960
asg40
I00
sg41
g2
(g42
g4
NtRp3961
(dp3962
g45
I00
sg46
g47
sg48
(lp3963
g2
(g42
g4
NtRp3964
(dp3965
g45
I00
sg46
g52
sg48
(lp3966
g54
asbag2
(g42
g4
NtRp3967
(dp3968
g45
I00
sg46
g52
sg48
(lp3969
g54
asbasbsg61
(lp3970
I-8
aF6.5
aF2
aF-52
aI1
asg46
Vrepeat
p3971
sbag2
(g3
g4
NtRp3972
(dp3973
g7
(lp3974
(((lt(ltp3975
a(((lp3976
I16
aI4
aI13
at(lp3977
I16
aI4
aI13
aI16
aI4
aI13
atp3978
a(((lp3979
I7
aI6
at(lp3980
I7
aI6
aI7
aI6
atp3981
a(((lp3982
I15
at(lp3983
I15
aI15
atp3984
a(((lp3985
I12
aI5
aI12
aI13
at(lp3986
I12
aI5
aI12
aI13
aI12
aI5
aI12
aI13
atp3987
a(((lp3988
I16
aI2
aI1
aI8
at(lp3989
I16
aI2
aI1
aI8
aI16
aI2
aI1
aI8
atp3990
a(((lp3991
I12
aI6
aI6
aI16
at(lp3992
I12
aI6
aI6
aI16
aI12
aI6
aI6
aI16
atp3993
a(((lp3994
I12
aI12
at(lp3995
I12
aI12
aI12
aI12
atp3996
a(((lp3997
I16
aI14
at(lp3998
I16
aI14
aI16
aI14
atp3999
a(((lp4000
I14
aI11
aI16
aI14
at(lp4001
I14
aI11
aI16
aI14
aI14
aI11
aI16
aI14
atp4002
a(((lp4003
I5
aI11
at(lp4004
I5
aI11
aI5
aI11
atp4005
a(((lp4006
I5
aI1
aI12
at(lp4007
I5
aI1
aI12
aI5
aI1
aI12
atp4008
a(((lp4009
I8
aI9
at(lp4010
I8
aI9
aI8
aI9
atp4011
asg40
I00
sg41
g2
(g42
g4
NtRp4012
(dp4013
g45
I00
sg46
g47
sg48
(lp4014
g2
(g42
g4
NtRp4015
(dp4016
g45
I00
sg46
g52
sg48
(lp4017
g54
asbag2
(g42
g4
NtRp4018
(dp4019
g45
I00
sg46
g52
sg48
(lp4020
g54
asbasbsg61
(lp4021
I-33
aF0
aF0
aF429.5
aI1
asg46
Vrepeat-k with k=2
p4022
sbag2
(g3
g4
NtRp4023
(dp4024
g7
(lp4025
(((lp4026
I1
aI15
aI16
aI16
aI7
at(lp4027
I1
aI15
aI16
aI16
aI7
aI1
aI15
aI16
aI16
aI7
aI1
aI15
aI16
aI16
aI7
atp4028
a(((lp4029
I6
aI13
aI12
aI4
aI0
at(lp4030
I6
aI13
aI12
aI4
aI0
aI6
aI13
aI12
aI4
aI0
aI6
aI13
aI12
aI4
aI0
atp4031
a(((lt(ltp4032
a(((lp4033
I0
at(lp4034
I0
aI0
aI0
atp4035
a(((lp4036
I1
at(lp4037
I1
aI1
aI1
atp4038
a(((lp4039
I6
aI15
aI1
aI6
aI3
at(lp4040
I6
aI15
aI1
aI6
aI3
aI6
aI15
aI1
aI6
aI3
aI6
aI15
aI1
aI6
aI3
atp4041
a(((lt(ltp4042
a(((lt(ltp4043
a(((lp4044
I6
aI5
at(lp4045
I6
aI5
aI6
aI5
aI6
aI5
atp4046
a(((lp4047
I9
aI10
aI6
aI4
at(lp4048
I9
aI10
aI6
aI4
aI9
aI10
aI6
aI4
aI9
aI10
aI6
aI4
atp4049
a(((lp4050
I2
at(lp4051
I2
aI2
aI2
atp4052
a(((lp4053
I16
aI14
aI12
aI2
at(lp4054
I16
aI14
aI12
aI2
aI16
aI14
aI12
aI2
aI16
aI14
aI12
aI2
atp4055
a(((lp4056
I14
aI14
aI4
aI16
aI10
at(lp4057
I14
aI14
aI4
aI16
aI10
aI14
aI14
aI4
aI16
aI10
aI14
aI14
aI4
aI16
aI10
atp4058
asg40
I00
sg41
g2
(g42
g4
NtRp4059
(dp4060
g45
I00
sg46
g47
sg48
(lp4061
g2
(g42
g4
NtRp4062
(dp4063
g45
I00
sg46
g52
sg48
(lp4064
g54
asbag2
(g42
g4
NtRp4065
(dp4066
g45
I00
sg46
g52
sg48
(lp4067
g54
asbasbsg61
(lp4068
I-66
aF0
aF0
aF1294.5
aI1
asg46
Vrepeat-k with k=3
p4069
sbag2
(g3
g4
NtRp4070
(dp4071
g7
(lp4072
(((lp4073
I15
at(lp4074
I15
aI15
aI15
aI15
aI15
atp4075
a(((lp4076
I14
aI8
aI10
at(lp4077
I14
aI8
aI10
aI14
aI8
aI10
aI14
aI8
aI10
aI14
aI8
aI10
aI14
aI8
aI10
atp4078
a(((lp4079
I8
aI8
aI9
at(lp4080
I8
aI8
aI9
aI8
aI8
aI9
aI8
aI8
aI9
aI8
aI8
aI9
aI8
aI8
aI9
atp4081
a(((lt(ltp4082
a(((lt(ltp4083
a(((lp4084
I2
aI10
aI0
aI10
aI3
at(lp4085
I2
aI10
aI0
aI10
aI3
aI2
aI10
aI0
aI10
aI3
aI2
aI10
aI0
aI10
aI3
aI2
aI10
aI0
aI10
aI3
aI2
aI10
aI0
aI10
aI3
atp4086
a(((lp4087
I5
at(lp4088
I5
aI5
aI5
aI5
aI5
atp4089
a(((lp4090
I15
at(lp4091
I15
aI15
aI15
aI15
aI15
atp4092
a(((lp4093
I7
aI2
aI13
aI14
aI16
at(lp4094
I7
aI2
aI13
aI14
aI16
aI7
aI2
aI13
aI14
aI16
aI7
aI2
aI13
aI14
aI16
aI7
aI2
aI13
aI14
aI16
aI7
aI2
aI13
aI14
aI16
atp4095
a(((lp4096
I7
aI14
at(lp4097
I7
aI14
aI7
aI14
aI7
aI14
aI7
aI14
aI7
aI14
atp4098
a(((lp4099
I1
aI10
at(lp4100
I1
aI10
aI1
aI10
aI1
aI10
aI1
aI10
aI1
aI10
atp4101
a(((lp4102
I2
aI15
aI7
aI7
aI15
at(lp4103
I2
aI15
aI7
aI7
aI15
aI2
aI15
aI7
aI7
aI15
aI2
aI15
aI7
aI7
aI15
aI2
aI15
aI7
aI7
aI15
aI2
aI15
aI7
aI7
aI15
atp4104
a(((lp4105
I1
aI10
at(lp4106
I1
aI10
aI1
aI10
aI1
aI10
aI1
aI10
aI1
aI10
atp4107
asg40
I00
sg41
g2
(g42
g4
NtRp4108
(dp4109
g45
I00
sg46
g47
sg48
(lp4110
g2
(g42
g4
NtRp4111
(dp4112
g45
I00
sg46
g52
sg48
(lp4113
g54
asbag2
(g42
g4
NtRp4114
(dp4115
g45
I00
sg46
g52
sg48
(lp4116
g54
asbasbsg61
(lp4117
I-120
aF0
aF0
aF1899.333333333333
aI1
asg46
Vrepeat-k with k=5
p4118
sbag2
(g3
g4
NtRp4119
(dp4120
g7
(lp4121
(((lp4122
I1
aI1
aI2
aI3
at(lp4123
I1
aI2
aI3
atp4124
a(((lp4125
I2
aI1
aI2
aI3
at(lp4126
I1
aI2
aI3
aI1
aI2
aI3
atp4127
a(((lp4128
I4
aI1
aI2
at(lp4129
I1
aI2
aI1
aI2
aI1
aI2
aI1
aI2
atp4130
a(((lp4131
I5
aI7
aI0
at(lp4132
I7
aI0
aI7
aI0
aI7
aI0
aI7
aI0
aI7
aI0
atp4133
a(((lp4134
I3
aI3
aI2
aI5
at(lp4135
I3
aI2
aI5
aI3
aI2
aI5
aI3
aI2
aI5
atp4136
a(((lp4137
I5
aI1
at(lp4138
I1
aI1
aI1
aI1
aI1
atp4139
a(((lp4140
I1
aI16
at(lp4141
I16
atp4142
a(((lp4143
I2
aI6
aI16
at(lp4144
I6
aI16
aI6
aI16
atp4145
a(((lp4146
I2
aI0
aI8
aI11
at(lp4147
I0
aI8
aI11
aI0
aI8
aI11
atp4148
a(((lp4149
I1
aI13
aI14
aI13
at(lp4150
I13
aI14
aI13
atp4151
a(((lp4152
I4
aI11
aI11
at(lp4153
I11
aI11
aI11
aI11
aI11
aI11
aI11
aI11
atp4154
a(((lp4155
I5
aI0
aI6
aI6
at(lp4156
I0
aI6
aI6
aI0
aI6
aI6
aI0
aI6
aI6
aI0
aI6
aI6
aI0
aI6
aI6
atp4157
a(((lp4158
I4
aI7
aI2
aI5
at(lp4159
I7
aI2
aI5
aI7
aI2
aI5
aI7
aI2
aI5
aI7
aI2
aI5
atp4160
asg40
I00
sg41
g2
(g42
g4
NtRp4161
(dp4162
g45
I00
sg46
g47
sg48
(lp4163
g2
(g42
g4
NtRp4164
(dp4165
g45
I00
sg46
g52
sg48
(lp4166
g54
asbag2
(g42
g4
NtRp4167
(dp4168
g45
I00
sg46
g52
sg48
(lp4169
g54
asbasbsg61
(lp4170
I-46
aF3.3333333333333335
aF13.916666666666668
aF16.583333333333329
aI1
asg46
Vrepeat-many
p4171
sbag2
(g3
g4
NtRp4172
(dp4173
g7
(lp4174
(((lp4175
I14
aI11
aI10
aI7
at(lp4176
I14
aI11
aI10
aI7
atp4177
a(((lp4178
I8
aI5
at(lp4179
I8
aI5
atp4180
a(((lp4181
I6
aI14
aI9
aI13
aI5
aI8
aI7
at(lp4182
I6
aI14
aI9
aI13
aI5
aI8
aI7
atp4183
a(((lp4184
I14
aI0
at(lp4185
I14
aI0
atp4186
a(((lp4187
I1
aI12
aI16
at(lp4188
I2
aI12
aI16
atp4189
a(((lp4190
I0
aI14
at(lp4191
I0
aI14
atp4192
a(((lt(ltp4193
a(((lp4194
I1
aI5
aI1
aI1
at(lp4195
I2
aI5
aI2
aI2
atp4196
a(((lp4197
I15
aI14
aI10
aI1
aI5
aI6
at(lp4198
I15
aI14
aI10
aI2
aI5
aI6
atp4199
a(((lp4200
I6
aI16
aI10
aI13
aI15
aI13
at(lp4201
I6
aI16
aI10
aI13
aI15
aI13
atp4202
a(((lp4203
I1
aI1
aI1
at(lp4204
I2
aI2
aI2
atp4205
a(((lp4206
I15
aI10
aI10
aI2
at(lp4207
I15
aI10
aI10
aI2
atp4208
a(((lp4209
I7
aI9
at(lp4210
I7
aI9
atp4211
asg40
I00
sg41
g2
(g42
g4
NtRp4212
(dp4213
g45
I00
sg46
g47
sg48
(lp4214
g2
(g42
g4
NtRp4215
(dp4216
g45
I00
sg46
g52
sg48
(lp4217
g54
asbag2
(g42
g4
NtRp4218
(dp4219
g45
I00
sg46
g52
sg48
(lp4220
g54
asbasbsg61
(lp4221
I0
aF1.0833333333333333
aF2.25
aF-36.083333333333314
aI1
asg46
Vreplace-all-k-with-n with k=1 and n=2
p4222
sbag2
(g3
g4
NtRp4223
(dp4224
g7
(lp4225
(((lp4226
I14
aI1
aI2
aI3
aI2
at(lp4227
I14
aI1
aI4
aI3
aI4
atp4228
a(((lp4229
I10
at(lp4230
I10
atp4231
a(((lp4232
I8
aI15
at(lp4233
I8
aI15
atp4234
a(((lp4235
I15
aI13
aI9
at(lp4236
I15
aI13
aI9
atp4237
a(((lp4238
I2
aI2
aI2
at(lp4239
I4
aI4
aI4
atp4240
a(((lp4241
I4
aI2
at(lp4242
I4
aI4
atp4243
a(((lp4244
I8
aI4
aI2
aI12
aI8
aI2
at(lp4245
I8
aI4
aI4
aI12
aI8
aI4
atp4246
a(((lt(ltp4247
a(((lp4248
I14
aI5
aI6
aI10
aI3
at(lp4249
I14
aI5
aI6
aI10
aI3
atp4250
a(((lp4251
I10
aI11
aI13
at(lp4252
I10
aI11
aI13
atp4253
a(((lp4254
I8
aI2
aI13
aI2
at(lp4255
I8
aI4
aI13
aI4
atp4256
a(((lp4257
I0
aI10
aI10
aI14
at(lp4258
I0
aI10
aI10
aI14
atp4259
a(((lp4260
I2
aI2
aI2
at(lp4261
I4
aI4
aI4
atp4262
asg40
I00
sg41
g2
(g42
g4
NtRp4263
(dp4264
g45
I00
sg46
g47
sg48
(lp4265
g2
(g42
g4
NtRp4266
(dp4267
g45
I00
sg46
g52
sg48
(lp4268
g54
asbag2
(g42
g4
NtRp4269
(dp4270
g45
I00
sg46
g52
sg48
(lp4271
g54
asbasbsg61
(lp4272
I0
aF1.7833333333333332
aF7.4666666666666668
aF-73.066666666666663
aI1
asg46
Vreplace-all-k-with-n with k=2 and n=4
p4273
sbag2
(g3
g4
NtRp4274
(dp4275
g7
(lp4276
(((lp4277
I3
aI3
aI3
aI3
aI3
aI3
at(lp4278
I-2
aI-2
aI-2
aI-2
aI-2
aI-2
atp4279
a(((lp4280
I5
aI14
aI2
at(lp4281
I5
aI14
aI2
atp4282
a(((lt(ltp4283
a(((lp4284
I3
aI3
aI3
at(lp4285
I-2
aI-2
aI-2
atp4286
a(((lp4287
I4
aI15
aI3
at(lp4288
I4
aI15
aI-2
atp4289
a(((lp4290
I11
aI16
aI16
aI3
aI9
at(lp4291
I11
aI16
aI16
aI-2
aI9
atp4292
a(((lp4293
I13
aI8
aI3
at(lp4294
I13
aI8
aI-2
atp4295
a(((lp4296
I16
aI3
at(lp4297
I16
aI-2
atp4298
a(((lp4299
I16
at(lp4300
I16
atp4301
a(((lp4302
I5
at(lp4303
I5
atp4304
a(((lp4305
I15
at(lp4306
I15
atp4307
a(((lp4308
I3
aI5
aI13
aI11
aI16
aI1
at(lp4309
I-2
aI5
aI13
aI11
aI16
aI1
atp4310
a(((lp4311
I3
aI3
aI5
aI12
aI2
at(lp4312
I-2
aI-2
aI5
aI12
aI2
atp4313
asg40
I00
sg41
g2
(g42
g4
NtRp4314
(dp4315
g45
I00
sg46
g47
sg48
(lp4316
g2
(g42
g4
NtRp4317
(dp4318
g45
I00
sg46
g52
sg48
(lp4319
g54
asbag2
(g42
g4
NtRp4320
(dp4321
g45
I00
sg46
g52
sg48
(lp4322
g54
asbasbsg61
(lp4323
I0
aF2.2333333333333334
aF-19.666666666666664
aF446.66666666666663
aI1
asg46
Vreplace-all-k-with-n with k=3 and n=-2
p4324
sbag2
(g3
g4
NtRp4325
(dp4326
g7
(lp4327
(((lp4328
I1
aI15
aI3
aI1
aI7
aI12
aI5
at(lp4329
I1
aI15
aI3
aI1
aI7
aI12
aI0
atp4330
a(((lp4331
I15
at(lp4332
I15
atp4333
a(((lp4334
I9
aI0
aI0
aI4
aI0
at(lp4335
I9
aI0
aI0
aI4
aI0
atp4336
a(((lp4337
I5
aI6
at(lp4338
I0
aI6
atp4339
a(((lp4340
I5
aI11
aI14
aI5
aI5
aI9
at(lp4341
I0
aI11
aI14
aI0
aI0
aI9
atp4342
a(((lt(ltp4343
a(((lp4344
I2
aI6
aI12
aI1
aI0
at(lp4345
I2
aI6
aI12
aI1
aI0
atp4346
a(((lp4347
I5
aI2
aI13
aI6
aI14
aI14
aI12
at(lp4348
I0
aI2
aI13
aI6
aI14
aI14
aI12
atp4349
a(((lp4350
I5
aI5
aI5
aI5
aI5
at(lp4351
I0
aI0
aI0
aI0
aI0
atp4352
a(((lt(ltp4353
a(((lp4354
I5
aI2
aI8
aI3
at(lp4355
I0
aI2
aI8
aI3
atp4356
a(((lt(ltp4357
a(((lp4358
I5
aI5
aI14
aI5
aI5
at(lp4359
I0
aI0
aI14
aI0
aI0
atp4360
asg40
I00
sg41
g2
(g42
g4
NtRp4361
(dp4362
g45
I00
sg46
g47
sg48
(lp4363
g2
(g42
g4
NtRp4364
(dp4365
g45
I00
sg46
g52
sg48
(lp4366
g54
asbag2
(g42
g4
NtRp4367
(dp4368
g45
I00
sg46
g52
sg48
(lp4369
g54
asbasbsg61
(lp4370
I0
aF1.6023809523809522
aF-16.678571428571431
aF355.75
aI1
asg46
Vreplace-all-k-with-n with k=5 and n=0
p4371
sbag2
(g3
g4
NtRp4372
(dp4373
g7
(lp4374
(((lp4375
I10
at(lp4376
I10
atp4377
a(((lp4378
I10
aI8
aI8
aI0
aI15
aI1
at(lp4379
I10
aI10
aI10
aI10
aI10
aI10
atp4380
a(((lp4381
I3
aI6
aI11
at(lp4382
I3
aI3
aI3
atp4383
a(((lp4384
I5
aI4
aI0
at(lp4385
I5
aI5
aI5
atp4386
a(((lp4387
I13
aI1
aI5
aI5
aI11
aI2
aI3
aI13
at(lp4388
I13
aI13
aI13
aI13
aI13
aI13
aI13
aI13
atp4389
a(((lp4390
I0
aI7
at(lp4391
I0
aI0
atp4392
a(((lp4393
I6
aI6
aI13
aI16
aI0
aI14
aI1
at(lp4394
I6
aI6
aI6
aI6
aI6
aI6
aI6
atp4395
a(((lp4396
I4
aI11
aI4
aI16
aI4
aI0
aI5
at(lp4397
I4
aI4
aI4
aI4
aI4
aI4
aI4
atp4398
a(((lp4399
I1
aI14
at(lp4400
I1
aI1
atp4401
a(((lp4402
I6
aI9
aI6
aI10
aI3
aI10
aI14
aI5
at(lp4403
I6
aI6
aI6
aI6
aI6
aI6
aI6
aI6
atp4404
a(((lp4405
I16
aI8
aI9
aI15
aI12
at(lp4406
I16
aI16
aI16
aI16
aI16
atp4407
a(((lp4408
I12
aI5
aI1
aI1
aI9
aI12
aI4
aI0
at(lp4409
I12
aI12
aI12
aI12
aI12
aI12
aI12
aI12
atp4410
a(((lp4411
I10
aI1
aI7
aI9
aI2
at(lp4412
I10
aI10
aI10
aI10
aI10
atp4413
asg40
I00
sg41
g2
(g42
g4
NtRp4414
(dp4415
g45
I00
sg46
g47
sg48
(lp4416
g2
(g42
g4
NtRp4417
(dp4418
g45
I00
sg46
g52
sg48
(lp4419
g54
asbag2
(g42
g4
NtRp4420
(dp4421
g45
I00
sg46
g52
sg48
(lp4422
g54
asbasbsg61
(lp4423
I0
aF7.7607142857142852
aF6.2476190476190476
aF-1280.645238095238
aI1
asg46
Vreplace-all-with-index-k with k=1
p4424
sbag2
(g3
g4
NtRp4425
(dp4426
g7
(lp4427
(((lp4428
I3
aI1
aI3
aI9
aI1
aI10
aI12
aI1
aI3
at(lp4429
I1
aI1
aI1
aI1
aI1
aI1
aI1
aI1
aI1
atp4430
a(((lp4431
I8
aI7
aI15
aI10
aI6
at(lp4432
I7
aI7
aI7
aI7
aI7
atp4433
a(((lp4434
I15
aI0
aI2
aI5
aI7
aI14
aI2
aI3
aI10
at(lp4435
I0
aI0
aI0
aI0
aI0
aI0
aI0
aI0
aI0
atp4436
a(((lp4437
I4
aI3
at(lp4438
I3
aI3
atp4439
a(((lp4440
I5
aI3
aI15
aI1
at(lp4441
I3
aI3
aI3
aI3
atp4442
a(((lp4443
I15
aI13
aI8
aI16
aI15
at(lp4444
I13
aI13
aI13
aI13
aI13
atp4445
a(((lp4446
I12
aI5
at(lp4447
I5
aI5
atp4448
a(((lp4449
I15
aI3
aI15
aI6
aI16
aI14
aI14
aI1
at(lp4450
I3
aI3
aI3
aI3
aI3
aI3
aI3
aI3
atp4451
a(((lp4452
I1
aI4
at(lp4453
I4
aI4
atp4454
a(((lp4455
I5
aI4
aI11
aI6
aI5
aI1
aI14
aI2
at(lp4456
I4
aI4
aI4
aI4
aI4
aI4
aI4
aI4
atp4457
a(((lp4458
I16
aI11
aI16
aI10
at(lp4459
I11
aI11
aI11
aI11
atp4460
a(((lp4461
I16
aI6
aI13
at(lp4462
I6
aI6
aI6
atp4463
a(((lp4464
I7
aI16
aI13
aI16
aI3
aI7
at(lp4465
I16
aI16
aI16
aI16
aI16
aI16
atp4466
asg40
I00
sg41
g2
(g42
g4
NtRp4467
(dp4468
g45
I00
sg46
g47
sg48
(lp4469
g2
(g42
g4
NtRp4470
(dp4471
g45
I00
sg46
g52
sg48
(lp4472
g54
asbag2
(g42
g4
NtRp4473
(dp4474
g45
I00
sg46
g52
sg48
(lp4475
g54
asbasbsg61
(lp4476
I0
aF7.9138888888888888
aF-30.072222222222223
aF-1254.0277777777778
aI1
asg46
Vreplace-all-with-index-k with k=2
p4477
sbag2
(g3
g4
NtRp4478
(dp4479
g7
(lp4480
(((lp4481
I1
aI1
aI7
aI16
aI6
aI16
aI2
at(lp4482
I7
aI7
aI7
aI7
aI7
aI7
aI7
atp4483
a(((lp4484
I15
aI16
aI7
aI6
aI11
aI1
aI16
aI14
aI10
at(lp4485
I7
aI7
aI7
aI7
aI7
aI7
aI7
aI7
aI7
atp4486
a(((lp4487
I11
aI9
aI10
aI5
aI6
aI7
aI10
aI9
at(lp4488
I10
aI10
aI10
aI10
aI10
aI10
aI10
aI10
atp4489
a(((lp4490
I4
aI10
aI8
aI6
aI1
aI2
at(lp4491
I8
aI8
aI8
aI8
aI8
aI8
atp4492
a(((lp4493
I4
aI9
aI8
at(lp4494
I8
aI8
aI8
atp4495
a(((lp4496
I7
aI16
aI16
aI3
aI12
aI9
aI4
aI5
aI2
aI9
at(lp4497
I16
aI16
aI16
aI16
aI16
aI16
aI16
aI16
aI16
aI16
atp4498
a(((lp4499
I5
aI12
aI13
aI4
aI16
at(lp4500
I13
aI13
aI13
aI13
aI13
atp4501
a(((lp4502
I13
aI14
aI10
aI0
aI7
at(lp4503
I10
aI10
aI10
aI10
aI10
atp4504
a(((lp4505
I13
aI10
aI2
aI2
aI12
aI10
at(lp4506
I2
aI2
aI2
aI2
aI2
aI2
atp4507
a(((lp4508
I10
aI4
aI0
aI13
aI0
aI4
aI4
aI0
aI4
at(lp4509
I0
aI0
aI0
aI0
aI0
aI0
aI0
aI0
aI0
atp4510
a(((lp4511
I5
aI14
aI11
aI5
aI16
aI10
aI3
aI3
aI16
at(lp4512
I11
aI11
aI11
aI11
aI11
aI11
aI11
aI11
aI11
atp4513
a(((lp4514
I10
aI9
aI1
aI16
aI15
aI16
aI6
aI16
aI16
at(lp4515
I1
aI1
aI1
aI1
aI1
aI1
aI1
aI1
aI1
atp4516
a(((lp4517
I6
aI13
aI7
aI11
aI13
aI10
aI7
at(lp4518
I7
aI7
aI7
aI7
aI7
aI7
aI7
atp4519
asg40
I00
sg41
g2
(g42
g4
NtRp4520
(dp4521
g45
I00
sg46
g47
sg48
(lp4522
g2
(g42
g4
NtRp4523
(dp4524
g45
I00
sg46
g52
sg48
(lp4525
g54
asbag2
(g42
g4
NtRp4526
(dp4527
g45
I00
sg46
g52
sg48
(lp4528
g54
asbasbsg61
(lp4529
I0
aF8.2900793650793645
aF-8.2686507936507923
aF-1861.711507936508
aI1
asg46
Vreplace-all-with-index-k with k=3
p4530
sbag2
(g3
g4
NtRp4531
(dp4532
g7
(lp4533
(((lp4534
I11
aI6
aI8
aI7
aI0
at(lp4535
I0
aI0
aI0
aI0
aI0
atp4536
a(((lp4537
I5
aI6
aI5
aI5
aI2
aI11
aI2
aI0
at(lp4538
I2
aI2
aI2
aI2
aI2
aI2
aI2
aI2
atp4539
a(((lp4540
I16
aI6
aI10
aI9
aI16
aI4
aI10
aI3
aI12
aI11
aI8
aI4
at(lp4541
I16
aI16
aI16
aI16
aI16
aI16
aI16
aI16
aI16
aI16
aI16
aI16
atp4542
a(((lp4543
I10
aI6
aI4
aI16
aI9
aI16
aI7
at(lp4544
I9
aI9
aI9
aI9
aI9
aI9
aI9
atp4545
a(((lp4546
I6
aI14
aI6
aI10
aI14
aI11
aI14
aI0
aI1
aI10
aI7
at(lp4547
I14
aI14
aI14
aI14
aI14
aI14
aI14
aI14
aI14
aI14
aI14
atp4548
a(((lp4549
I16
aI6
aI14
aI4
aI7
at(lp4550
I7
aI7
aI7
aI7
aI7
atp4551
a(((lp4552
I1
aI16
aI11
aI12
aI4
at(lp4553
I4
aI4
aI4
aI4
aI4
atp4554
a(((lp4555
I7
aI15
aI11
aI1
aI2
at(lp4556
I2
aI2
aI2
aI2
aI2
atp4557
a(((lp4558
I15
aI3
aI6
aI8
aI6
aI4
aI1
at(lp4559
I6
aI6
aI6
aI6
aI6
aI6
aI6
atp4560
a(((lp4561
I4
aI9
aI8
aI2
aI16
aI15
at(lp4562
I16
aI16
aI16
aI16
aI16
aI16
atp4563
a(((lp4564
I13
aI12
aI1
aI13
aI13
aI16
aI7
at(lp4565
I13
aI13
aI13
aI13
aI13
aI13
aI13
atp4566
a(((lp4567
I5
aI5
aI2
aI7
aI10
aI12
aI5
aI12
aI7
aI8
at(lp4568
I10
aI10
aI10
aI10
aI10
aI10
aI10
aI10
aI10
aI10
atp4569
a(((lp4570
I13
aI4
aI14
aI1
aI1
at(lp4571
I1
aI1
aI1
aI1
aI1
atp4572
asg40
I00
sg41
g2
(g42
g4
NtRp4573
(dp4574
g45
I00
sg46
g47
sg48
(lp4575
g2
(g42
g4
NtRp4576
(dp4577
g45
I00
sg46
g52
sg48
(lp4578
g54
asbag2
(g42
g4
NtRp4579
(dp4580
g45
I00
sg46
g52
sg48
(lp4581
g54
asbasbsg61
(lp4582
I0
aF8.8454545454545457
aF-3.3093073593073603
aF-1830.658225108225
aI1
asg46
Vreplace-all-with-index-k with k=5
p4583
sbag2
(g3
g4
NtRp4584
(dp4585
g7
(lp4586
(((lp4587
I6
aI12
aI1
aI9
aI7
at(lp4588
I2
aI12
aI1
aI9
aI7
atp4589
a(((lp4590
I10
aI2
at(lp4591
I2
aI2
atp4592
a(((lp4593
I10
aI9
aI2
aI12
aI8
at(lp4594
I2
aI9
aI2
aI12
aI8
atp4595
a(((lp4596
I16
aI6
aI8
aI4
aI5
aI3
aI15
aI9
at(lp4597
I2
aI6
aI8
aI4
aI5
aI3
aI15
aI9
atp4598
a(((lp4599
I14
aI16
aI4
at(lp4600
I2
aI16
aI4
atp4601
a(((lp4602
I16
aI2
aI2
aI14
aI10
aI3
aI10
aI8
at(lp4603
I2
aI2
aI2
aI14
aI10
aI3
aI10
aI8
atp4604
a(((lp4605
I9
aI10
aI6
aI15
aI12
aI8
aI7
aI6
at(lp4606
I2
aI10
aI6
aI15
aI12
aI8
aI7
aI6
atp4607
a(((lp4608
I11
aI3
aI5
aI5
aI14
aI15
at(lp4609
I2
aI3
aI5
aI5
aI14
aI15
atp4610
a(((lp4611
I1
aI7
aI9
at(lp4612
I2
aI7
aI9
atp4613
a(((lp4614
I8
aI4
aI10
aI15
aI5
aI12
at(lp4615
I2
aI4
aI10
aI15
aI5
aI12
atp4616
a(((lp4617
I16
aI5
aI9
aI2
aI15
aI16
aI1
at(lp4618
I2
aI5
aI9
aI2
aI15
aI16
aI1
atp4619
a(((lp4620
I2
at(lp4621
I2
atp4622
a(((lp4623
I7
aI0
at(lp4624
I2
aI0
atp4625
asg40
I00
sg41
g2
(g42
g4
NtRp4626
(dp4627
g45
I00
sg46
g47
sg48
(lp4628
g2
(g42
g4
NtRp4629
(dp4630
g45
I00
sg46
g52
sg48
(lp4631
g54
asbag2
(g42
g4
NtRp4632
(dp4633
g45
I00
sg46
g52
sg48
(lp4634
g54
asbasbsg61
(lp4635
I0
aF2.7749999999999999
aF-21.441666666666666
aF8.6583333333334167
aI1
asg46
Vreplace-index-k-with-n with k=1 and n=2
p4636
sbag2
(g3
g4
NtRp4637
(dp4638
g7
(lp4639
(((lp4640
I3
aI1
aI4
at(lp4641
I3
aI9
aI4
atp4642
a(((lp4643
I12
aI6
aI10
aI16
at(lp4644
I12
aI9
aI10
aI16
atp4645
a(((lp4646
I11
aI12
aI6
aI15
aI8
aI15
aI13
at(lp4647
I11
aI9
aI6
aI15
aI8
aI15
aI13
atp4648
a(((lp4649
I10
aI9
aI12
aI10
aI6
at(lp4650
I10
aI9
aI12
aI10
aI6
atp4651
a(((lp4652
I9
aI12
aI0
aI4
aI13
aI10
aI5
aI2
aI1
at(lp4653
I9
aI9
aI0
aI4
aI13
aI10
aI5
aI2
aI1
atp4654
a(((lp4655
I2
aI10
aI9
aI13
aI7
at(lp4656
I2
aI9
aI9
aI13
aI7
atp4657
a(((lp4658
I10
aI2
aI7
aI14
aI9
aI9
aI3
aI10
at(lp4659
I10
aI9
aI7
aI14
aI9
aI9
aI3
aI10
atp4660
a(((lp4661
I4
aI9
aI15
aI3
aI10
aI8
aI4
aI9
at(lp4662
I4
aI9
aI15
aI3
aI10
aI8
aI4
aI9
atp4663
a(((lp4664
I12
aI5
aI9
aI0
aI13
aI12
aI1
aI14
at(lp4665
I12
aI9
aI9
aI0
aI13
aI12
aI1
aI14
atp4666
a(((lp4667
I15
aI3
aI8
aI1
aI8
aI10
aI2
aI2
at(lp4668
I15
aI9
aI8
aI1
aI8
aI10
aI2
aI2
atp4669
a(((lp4670
I1
aI10
at(lp4671
I1
aI9
atp4672
a(((lp4673
I15
aI1
aI16
at(lp4674
I15
aI9
aI16
atp4675
a(((lp4676
I3
aI9
aI12
aI14
aI6
at(lp4677
I3
aI9
aI12
aI14
aI6
atp4678
asg40
I00
sg41
g2
(g42
g4
NtRp4679
(dp4680
g45
I00
sg46
g47
sg48
(lp4681
g2
(g42
g4
NtRp4682
(dp4683
g45
I00
sg46
g52
sg48
(lp4684
g54
asbag2
(g42
g4
NtRp4685
(dp4686
g45
I00
sg46
g52
sg48
(lp4687
g54
asbasbsg61
(lp4688
I0
aF2.2456349206349207
aF6.7464285714285737
aF-212.05595238095236
aI1
asg46
Vreplace-index-k-with-n with k=2 and n=9
p4689
sbag2
(g3
g4
NtRp4690
(dp4691
g7
(lp4692
(((lp4693
I12
aI16
aI9
aI0
at(lp4694
I12
aI16
aI-2
aI0
atp4695
a(((lp4696
I15
aI7
aI2
aI5
at(lp4697
I15
aI7
aI-2
aI5
atp4698
a(((lp4699
I8
aI4
aI8
aI11
aI10
at(lp4700
I8
aI4
aI-2
aI11
aI10
atp4701
a(((lp4702
I3
aI10
aI2
aI12
aI16
aI13
aI3
aI0
aI2
at(lp4703
I3
aI10
aI-2
aI12
aI16
aI13
aI3
aI0
aI2
atp4704
a(((lp4705
I0
aI5
aI13
aI6
at(lp4706
I0
aI5
aI-2
aI6
atp4707
a(((lp4708
I9
aI12
aI12
aI2
aI11
aI13
aI0
aI10
aI13
aI9
at(lp4709
I9
aI12
aI-2
aI2
aI11
aI13
aI0
aI10
aI13
aI9
atp4710
a(((lp4711
I14
aI16
aI4
aI1
at(lp4712
I14
aI16
aI-2
aI1
atp4713
a(((lp4714
I7
aI12
aI16
aI4
aI13
aI5
aI3
aI7
aI5
at(lp4715
I7
aI12
aI-2
aI4
aI13
aI5
aI3
aI7
aI5
atp4716
a(((lp4717
I5
aI11
aI5
aI3
aI8
aI9
aI4
aI15
aI1
at(lp4718
I5
aI11
aI-2
aI3
aI8
aI9
aI4
aI15
aI1
atp4719
a(((lp4720
I14
aI9
aI1
aI6
aI3
aI10
aI12
aI9
aI5
at(lp4721
I14
aI9
aI-2
aI6
aI3
aI10
aI12
aI9
aI5
atp4722
a(((lp4723
I6
aI13
aI9
aI2
aI7
aI8
at(lp4724
I6
aI13
aI-2
aI2
aI7
aI8
atp4725
a(((lp4726
I8
aI11
aI15
at(lp4727
I8
aI11
aI-2
atp4728
a(((lp4729
I15
aI15
aI12
aI6
aI0
aI10
aI0
aI9
aI11
aI4
at(lp4730
I15
aI15
aI-2
aI6
aI0
aI10
aI0
aI9
aI11
aI4
atp4731
asg40
I00
sg41
g2
(g42
g4
NtRp4732
(dp4733
g45
I00
sg46
g47
sg48
(lp4734
g2
(g42
g4
NtRp4735
(dp4736
g45
I00
sg46
g52
sg48
(lp4737
g54
asbag2
(g42
g4
NtRp4738
(dp4739
g45
I00
sg46
g52
sg48
(lp4740
g54
asbasbsg61
(lp4741
I0
aF1.8222222222222224
aF-24.855555555555554
aF746.92222222222199
aI1
asg46
Vreplace-index-k-with-n with k=3 and n=-2
p4742
sbag2
(g3
g4
NtRp4743
(dp4744
g7
(lp4745
(((lp4746
I14
aI12
aI9
aI12
aI3
aI1
aI14
aI12
at(lp4747
I14
aI12
aI9
aI12
aI0
aI1
aI14
aI12
atp4748
a(((lp4749
I7
aI1
aI16
aI8
aI12
aI4
at(lp4750
I7
aI1
aI16
aI8
aI0
aI4
atp4751
a(((lp4752
I2
aI13
aI12
aI16
aI14
aI14
at(lp4753
I2
aI13
aI12
aI16
aI0
aI14
atp4754
a(((lp4755
I13
aI14
aI8
aI10
aI7
aI16
aI7
at(lp4756
I13
aI14
aI8
aI10
aI0
aI16
aI7
atp4757
a(((lp4758
I12
aI11
aI11
aI7
aI2
aI6
aI13
at(lp4759
I12
aI11
aI11
aI7
aI0
aI6
aI13
atp4760
a(((lp4761
I9
aI9
aI0
aI8
aI14
aI5
aI8
aI10
aI10
aI11
aI10
at(lp4762
I9
aI9
aI0
aI8
aI0
aI5
aI8
aI10
aI10
aI11
aI10
atp4763
a(((lp4764
I6
aI6
aI16
aI6
aI2
aI6
at(lp4765
I6
aI6
aI16
aI6
aI0
aI6
atp4766
a(((lp4767
I11
aI16
aI12
aI1
aI15
aI16
aI3
aI12
aI16
aI16
at(lp4768
I11
aI16
aI12
aI1
aI0
aI16
aI3
aI12
aI16
aI16
atp4769
a(((lp4770
I11
aI14
aI14
aI16
aI6
at(lp4771
I11
aI14
aI14
aI16
aI0
atp4772
a(((lp4773
I3
aI9
aI3
aI8
aI13
aI1
aI1
aI7
at(lp4774
I3
aI9
aI3
aI8
aI0
aI1
aI1
aI7
atp4775
a(((lp4776
I5
aI2
aI5
aI7
aI11
aI12
aI3
aI15
at(lp4777
I5
aI2
aI5
aI7
aI0
aI12
aI3
aI15
atp4778
a(((lp4779
I2
aI4
aI11
aI14
aI5
at(lp4780
I2
aI4
aI11
aI14
aI0
atp4781
a(((lp4782
I5
aI15
aI15
aI4
aI4
aI0
aI4
aI11
at(lp4783
I5
aI15
aI15
aI4
aI0
aI0
aI4
aI11
atp4784
asg40
I00
sg41
g2
(g42
g4
NtRp4785
(dp4786
g45
I00
sg46
g47
sg48
(lp4787
g2
(g42
g4
NtRp4788
(dp4789
g45
I00
sg46
g52
sg48
(lp4790
g54
asbag2
(g42
g4
NtRp4791
(dp4792
g45
I00
sg46
g52
sg48
(lp4793
g54
asbasbsg61
(lp4794
I0
aF1.4420995670995669
aF-14.800108225108225
aF624.63668831168843
aI1
asg46
Vreplace-index-k-with-n with k=5 and n=0
p4795
sbag2
(g3
g4
NtRp4796
(dp4797
g7
(lp4798
(((lp4799
I2
aI0
aI4
at(lp4800
I4
aI0
aI2
atp4801
a(((lp4802
I2
aI5
aI4
aI2
aI0
aI5
aI1
aI1
at(lp4803
I1
aI1
aI5
aI0
aI2
aI4
aI5
aI2
atp4804
a(((lp4805
I1
aI16
aI2
aI16
aI4
aI7
at(lp4806
I7
aI4
aI16
aI2
aI16
aI1
atp4807
a(((lp4808
I14
at(lp4809
I14
atp4810
a(((lp4811
I4
aI14
aI16
aI1
aI4
aI9
at(lp4812
I9
aI4
aI1
aI16
aI14
aI4
atp4813
a(((lp4814
I12
aI9
aI1
aI5
aI5
aI14
at(lp4815
I14
aI5
aI5
aI1
aI9
aI12
atp4816
a(((lp4817
I7
at(lp4818
I7
atp4819
a(((lp4820
I16
aI13
aI11
aI3
at(lp4821
I3
aI11
aI13
aI16
atp4822
a(((lp4823
I7
aI10
at(lp4824
I10
aI7
atp4825
a(((lp4826
I11
aI5
at(lp4827
I5
aI11
atp4828
a(((lt(ltp4829
a(((lp4830
I12
at(lp4831
I12
atp4832
a(((lp4833
I13
aI7
at(lp4834
I7
aI13
atp4835
asg40
I00
sg41
g2
(g42
g4
NtRp4836
(dp4837
g45
I00
sg46
g47
sg48
(lp4838
g2
(g42
g4
NtRp4839
(dp4840
g45
I00
sg46
g52
sg48
(lp4841
g54
asbag2
(g42
g4
NtRp4842
(dp4843
g45
I00
sg46
g52
sg48
(lp4844
g54
asbasbsg61
(lp4845
I0
aF0
aF0
aF-4.2632564145606011e-14
aI1
asg46
Vreverse
p4846
sbag2
(g3
g4
NtRp4847
(dp4848
g7
(lp4849
(((lp4850
I7
aI2
aI11
aI10
at(lp4851
I10
aI7
aI2
aI11
atp4852
a(((lp4853
I10
aI5
at(lp4854
I5
aI10
atp4855
a(((lp4856
I2
aI9
at(lp4857
I9
aI2
atp4858
a(((lp4859
I9
aI7
aI10
aI12
at(lp4860
I12
aI9
aI7
aI10
atp4861
a(((lp4862
I7
at(lp4863
I7
atp4864
a(((lp4865
I16
aI11
aI3
at(lp4866
I3
aI16
aI11
atp4867
a(((lp4868
I13
aI6
aI8
aI7
aI10
aI9
aI12
at(lp4869
I12
aI13
aI6
aI8
aI7
aI10
aI9
atp4870
a(((lp4871
I4
aI0
aI2
aI4
at(lp4872
I4
aI4
aI0
aI2
atp4873
a(((lp4874
I4
aI13
at(lp4875
I13
aI4
atp4876
a(((lp4877
I9
aI10
aI1
aI10
at(lp4878
I10
aI9
aI10
aI1
atp4879
a(((lp4880
I10
aI11
aI10
aI8
aI14
aI10
at(lp4881
I10
aI10
aI11
aI10
aI8
aI14
atp4882
a(((lp4883
I7
aI8
aI9
aI7
aI6
aI4
aI0
at(lp4884
I0
aI7
aI8
aI9
aI7
aI6
aI4
atp4885
a(((lp4886
I0
aI8
aI0
aI14
aI3
at(lp4887
I3
aI0
aI8
aI0
aI14
atp4888
asg40
I00
sg41
g2
(g42
g4
NtRp4889
(dp4890
g45
I00
sg46
g47
sg48
(lp4891
g2
(g42
g4
NtRp4892
(dp4893
g45
I00
sg46
g52
sg48
(lp4894
g54
asbag2
(g42
g4
NtRp4895
(dp4896
g45
I00
sg46
g52
sg48
(lp4897
g54
asbasbsg61
(lp4898
I0
aF0
aF0
aF7.1054273576010019e-15
aI1
asg46
Vrotate-k with k=1
p4899
sbag2
(g3
g4
NtRp4900
(dp4901
g7
(lp4902
(((lp4903
I8
aI7
aI16
aI2
aI7
at(lp4904
I16
aI2
aI7
aI8
aI7
atp4905
a(((lp4906
I5
aI4
aI16
aI12
at(lp4907
I4
aI16
aI12
aI5
atp4908
a(((lp4909
I16
aI5
at(lp4910
I5
aI16
atp4911
a(((lp4912
I12
aI4
aI1
aI12
at(lp4913
I4
aI1
aI12
aI12
atp4914
a(((lp4915
I5
aI16
aI1
aI4
at(lp4916
I16
aI1
aI4
aI5
atp4917
a(((lt(ltp4918
a(((lp4919
I1
aI7
aI16
aI15
aI5
aI14
aI4
at(lp4920
I5
aI14
aI4
aI1
aI7
aI16
aI15
atp4921
a(((lp4922
I1
aI9
aI3
aI11
aI2
aI11
at(lp4923
I11
aI2
aI11
aI1
aI9
aI3
atp4924
a(((lp4925
I6
aI9
aI7
aI0
aI9
aI14
aI0
at(lp4926
I9
aI14
aI0
aI6
aI9
aI7
aI0
atp4927
a(((lp4928
I4
at(lp4929
I4
atp4930
a(((lp4931
I0
aI2
aI8
aI7
at(lp4932
I2
aI8
aI7
aI0
atp4933
a(((lp4934
I0
at(lp4935
I0
atp4936
a(((lp4937
I7
aI2
aI11
aI0
aI16
aI10
at(lp4938
I0
aI16
aI10
aI7
aI2
aI11
atp4939
asg40
I00
sg41
g2
(g42
g4
NtRp4940
(dp4941
g45
I00
sg46
g47
sg48
(lp4942
g2
(g42
g4
NtRp4943
(dp4944
g45
I00
sg46
g52
sg48
(lp4945
g54
asbag2
(g42
g4
NtRp4946
(dp4947
g45
I00
sg46
g52
sg48
(lp4948
g54
asbasbsg61
(lp4949
I0
aF0
aF0
aF7.1054273576010019e-14
aI1
asg46
Vrotate-k with k=3
p4950
sbag2
(g3
g4
NtRp4951
(dp4952
g7
(lp4953
(((lp4954
I11
aI12
aI4
aI10
at(lp4955
I4
aI10
aI11
aI12
atp4956
a(((lp4957
I1
aI14
aI13
aI5
aI12
aI14
at(lp4958
I13
aI5
aI12
aI14
aI1
aI14
atp4959
a(((lp4960
I8
aI5
aI6
at(lp4961
I6
aI8
aI5
atp4962
a(((lp4963
I15
aI6
aI4
aI10
aI0
aI15
at(lp4964
I4
aI10
aI0
aI15
aI15
aI6
atp4965
a(((lp4966
I9
aI14
aI11
aI13
at(lp4967
I11
aI13
aI9
aI14
atp4968
a(((lp4969
I6
aI0
aI14
aI0
aI12
aI15
at(lp4970
I14
aI0
aI12
aI15
aI6
aI0
atp4971
a(((lp4972
I11
aI16
aI12
aI14
at(lp4973
I12
aI14
aI11
aI16
atp4974
a(((lp4975
I11
at(lp4976
I11
atp4977
a(((lp4978
I6
aI3
at(lp4979
I6
aI3
atp4980
a(((lp4981
I15
aI0
at(lp4982
I15
aI0
atp4983
a(((lp4984
I4
aI11
aI16
aI9
aI0
aI10
aI16
at(lp4985
I16
aI9
aI0
aI10
aI16
aI4
aI11
atp4986
a(((lt(ltp4987
a(((lp4988
I13
aI4
aI14
aI2
at(lp4989
I14
aI2
aI13
aI4
atp4990
asg40
I00
sg41
g2
(g42
g4
NtRp4991
(dp4992
g45
I00
sg46
g47
sg48
(lp4993
g2
(g42
g4
NtRp4994
(dp4995
g45
I00
sg46
g52
sg48
(lp4996
g54
asbag2
(g42
g4
NtRp4997
(dp4998
g45
I00
sg46
g52
sg48
(lp4999
g54
asbasbsg61
(lp5000
I0
aF0
aF0
aF2.8421709430404007e-14
aI1
asg46
Vrotate-k with k=-2
p5001
sbag2
(g3
g4
NtRp5002
(dp5003
g7
(lp5004
(((lp5005
I10
aI4
aI15
aI5
aI7
aI12
aI11
at(lp5006
I11
aI10
aI4
aI15
aI5
aI7
aI12
atp5007
a(((lp5008
I15
aI4
aI11
aI5
at(lp5009
I5
aI15
aI4
aI11
atp5010
a(((lp5011
I5
aI15
aI12
aI14
aI0
aI2
at(lp5012
I2
aI5
aI15
aI12
aI14
aI0
atp5013
a(((lp5014
I14
aI1
aI10
aI5
aI2
aI15
aI1
at(lp5015
I1
aI14
aI1
aI10
aI5
aI2
aI15
atp5016
a(((lp5017
I14
aI16
aI6
aI11
at(lp5018
I11
aI14
aI16
aI6
atp5019
a(((lp5020
I12
aI14
aI4
aI1
aI9
aI0
aI1
at(lp5021
I1
aI12
aI14
aI4
aI1
aI9
aI0
atp5022
a(((lp5023
I6
aI8
aI14
aI7
aI1
aI10
aI7
at(lp5024
I7
aI6
aI8
aI14
aI7
aI1
aI10
atp5025
a(((lp5026
I0
aI5
at(lp5027
I5
aI0
atp5028
a(((lp5029
I7
aI10
aI10
aI15
aI15
aI13
aI14
at(lp5030
I14
aI7
aI10
aI10
aI15
aI15
aI13
atp5031
a(((lp5032
I15
aI15
aI13
aI10
aI16
at(lp5033
I16
aI15
aI15
aI13
aI10
atp5034
a(((lp5035
I12
aI5
aI16
at(lp5036
I16
aI12
aI5
atp5037
a(((lp5038
I6
aI4
aI7
at(lp5039
I7
aI6
aI4
atp5040
a(((lp5041
I7
aI15
aI7
aI6
aI0
aI13
aI9
at(lp5042
I9
aI7
aI15
aI7
aI6
aI0
aI13
atp5043
asg40
I00
sg41
g2
(g42
g4
NtRp5044
(dp5045
g45
I00
sg46
g47
sg48
(lp5046
g2
(g42
g4
NtRp5047
(dp5048
g45
I00
sg46
g52
sg48
(lp5049
g54
asbag2
(g42
g4
NtRp5050
(dp5051
g45
I00
sg46
g52
sg48
(lp5052
g54
asbasbsg61
(lp5053
I0
aF0
aF0
aF3.1974423109204508e-14
aI1
asg46
Vrotate-k with k=1
p5054
sbag2
(g3
g4
NtRp5055
(dp5056
g7
(lp5057
(((lp5058
I13
aI3
aI8
aI1
aI2
aI6
aI16
aI15
aI6
aI5
aI10
aI15
at(lp5059
I3
aI8
atp5060
a(((lp5061
I12
aI13
aI1
aI1
aI0
aI2
aI11
at(lp5062
I13
aI1
atp5063
a(((lp5064
I6
aI7
aI2
aI0
aI0
aI4
aI4
at(lp5065
I7
aI2
atp5066
a(((lp5067
I3
aI3
aI2
aI1
aI11
aI16
aI2
aI16
aI6
aI3
at(lp5068
I3
aI2
atp5069
a(((lp5070
I1
aI5
aI15
aI16
aI3
aI10
at(lp5071
I5
aI15
atp5072
a(((lp5073
I9
aI13
aI7
aI4
aI15
aI8
aI16
at(lp5074
I13
aI7
atp5075
a(((lp5076
I2
aI5
aI9
aI7
aI10
aI4
at(lp5077
I5
aI9
atp5078
a(((lp5079
I11
aI0
aI4
aI5
aI12
aI3
aI9
aI16
aI11
aI15
at(lp5080
I0
aI4
atp5081
a(((lp5082
I2
aI3
aI6
aI12
aI15
aI16
aI3
aI3
at(lp5083
I3
aI6
atp5084
a(((lp5085
I13
aI0
aI12
aI4
aI12
aI12
aI1
at(lp5086
I0
aI12
atp5087
a(((lp5088
I2
aI14
aI6
aI12
aI13
aI5
aI3
aI12
aI9
aI10
at(lp5089
I14
aI6
atp5090
a(((lp5091
I5
aI16
aI0
aI9
aI2
aI10
aI8
aI7
aI16
aI2
aI9
aI6
at(lp5092
I16
aI0
atp5093
a(((lp5094
I13
aI2
aI4
aI6
aI3
aI9
aI16
aI6
aI13
aI10
at(lp5095
I2
aI4
atp5096
asg40
I00
sg41
g2
(g42
g4
NtRp5097
(dp5098
g45
I00
sg46
g47
sg48
(lp5099
g2
(g42
g4
NtRp5100
(dp5101
g45
I00
sg46
g52
sg48
(lp5102
g54
asbag2
(g42
g4
NtRp5103
(dp5104
g45
I00
sg46
g52
sg48
(lp5105
g54
asbasbsg61
(lp5106
I86
aF7.6261904761904766
aF-16.533333333333331
aF-2182.0476190476193
aI1
asg46
Vslice-k-n with k=2 and n=2
p5107
sbag2
(g3
g4
NtRp5108
(dp5109
g7
(lp5110
(((lp5111
I5
aI6
aI8
aI6
aI1
aI15
aI7
aI7
aI9
aI8
aI6
aI16
at(lp5112
I6
aI8
aI6
atp5113
a(((lp5114
I7
aI16
aI0
aI8
aI8
aI10
at(lp5115
I16
aI0
aI8
atp5116
a(((lp5117
I15
aI0
aI16
aI10
aI15
aI12
at(lp5118
I0
aI16
aI10
atp5119
a(((lp5120
I12
aI12
aI7
aI13
aI6
aI1
aI9
aI5
at(lp5121
I12
aI7
aI13
atp5122
a(((lp5123
I9
aI13
aI8
aI9
aI12
aI11
aI9
aI4
aI15
aI0
aI13
at(lp5124
I13
aI8
aI9
atp5125
a(((lp5126
I16
aI12
aI2
aI9
aI2
aI16
at(lp5127
I12
aI2
aI9
atp5128
a(((lp5129
I1
aI13
aI4
aI14
aI16
aI10
aI2
aI9
aI16
aI9
aI13
at(lp5130
I13
aI4
aI14
atp5131
a(((lp5132
I0
aI14
aI0
aI2
aI14
aI2
aI16
aI16
at(lp5133
I14
aI0
aI2
atp5134
a(((lp5135
I8
aI12
aI5
aI7
aI6
aI10
aI3
aI9
at(lp5136
I12
aI5
aI7
atp5137
a(((lp5138
I13
aI1
aI1
aI14
aI10
aI9
aI6
aI9
at(lp5139
I1
aI1
aI14
atp5140
a(((lp5141
I2
aI0
aI5
aI12
aI8
aI0
aI16
aI4
aI14
at(lp5142
I0
aI5
aI12
atp5143
a(((lp5144
I9
aI0
aI10
aI14
aI0
aI5
aI9
aI4
aI11
aI0
at(lp5145
I0
aI10
aI14
atp5146
a(((lp5147
I12
aI7
aI16
aI9
aI12
aI16
aI15
aI7
at(lp5148
I7
aI16
aI9
atp5149
asg40
I00
sg41
g2
(g42
g4
NtRp5150
(dp5151
g45
I00
sg46
g47
sg48
(lp5152
g2
(g42
g4
NtRp5153
(dp5154
g45
I00
sg46
g52
sg48
(lp5155
g54
asbag2
(g42
g4
NtRp5156
(dp5157
g45
I00
sg46
g52
sg48
(lp5158
g54
asbasbsg61
(lp5159
I72
aF5.1979797979797979
aF-7.1520202020202017
aF-1666.4661616161613
aI1
asg46
Vslice-k-n with k=2 and n=3
p5160
sbag2
(g3
g4
NtRp5161
(dp5162
g7
(lp5163
(((lp5164
I8
aI15
aI9
aI5
aI9
aI11
aI3
aI11
aI13
aI6
aI13
at(lp5165
I9
aI5
aI9
atp5166
a(((lp5167
I11
aI0
aI6
aI4
aI2
aI0
aI0
aI16
aI14
aI6
at(lp5168
I6
aI4
aI2
atp5169
a(((lp5170
I8
aI11
aI11
aI14
aI14
aI1
aI13
aI3
aI6
at(lp5171
I11
aI14
aI14
atp5172
a(((lp5173
I5
aI3
aI12
aI11
aI3
aI0
aI0
aI11
aI0
at(lp5174
I12
aI11
aI3
atp5175
a(((lp5176
I16
aI3
aI13
aI0
aI5
aI3
aI10
aI3
aI14
aI3
aI9
aI1
at(lp5177
I13
aI0
aI5
atp5178
a(((lp5179
I8
aI12
aI9
aI4
aI16
aI11
aI14
aI13
aI2
aI0
aI10
at(lp5180
I9
aI4
aI16
atp5181
a(((lp5182
I6
aI5
aI12
aI7
aI2
aI13
aI12
aI8
aI0
aI16
at(lp5183
I12
aI7
aI2
atp5184
a(((lp5185
I14
aI2
aI5
aI13
aI3
aI10
aI6
aI12
aI0
aI14
aI15
aI12
aI6
at(lp5186
I5
aI13
aI3
atp5187
a(((lp5188
I11
aI3
aI3
aI16
aI16
aI6
aI15
aI14
aI6
at(lp5189
I3
aI16
aI16
atp5190
a(((lp5191
I0
aI11
aI10
aI13
aI1
aI13
aI2
aI11
aI3
aI2
aI4
aI6
aI8
at(lp5192
I10
aI13
aI1
atp5193
a(((lp5194
I1
aI16
aI3
aI6
aI15
aI11
aI16
aI7
aI7
aI0
aI0
aI10
aI9
aI9
at(lp5195
I3
aI6
aI15
atp5196
a(((lp5197
I8
aI6
aI11
aI14
aI15
aI13
aI1
aI6
at(lp5198
I11
aI14
aI15
atp5199
a(((lp5200
I14
aI5
aI0
aI5
aI7
aI16
aI15
aI8
aI11
aI0
at(lp5201
I0
aI5
aI7
atp5202
asg40
I00
sg41
g2
(g42
g4
NtRp5203
(dp5204
g45
I00
sg46
g47
sg48
(lp5205
g2
(g42
g4
NtRp5206
(dp5207
g45
I00
sg46
g52
sg48
(lp5208
g54
asbag2
(g42
g4
NtRp5209
(dp5210
g45
I00
sg46
g52
sg48
(lp5211
g54
asbasbsg61
(lp5212
I100
aF6.5718725718725723
aF4.6856310356310349
aF-2728.100765900766
aI1
asg46
Vslice-k-n with k=3 and n=3
p5213
sbag2
(g3
g4
NtRp5214
(dp5215
g7
(lp5216
(((lp5217
I16
aI7
aI9
aI6
aI1
aI16
aI8
aI16
aI3
aI5
at(lp5218
I9
aI6
aI1
aI16
atp5219
a(((lp5220
I10
aI3
aI0
aI16
aI16
aI0
aI5
aI5
aI12
aI8
aI4
aI2
aI1
at(lp5221
I0
aI16
aI16
aI0
atp5222
a(((lp5223
I13
aI4
aI12
aI8
aI10
aI12
aI6
aI0
aI0
aI3
at(lp5224
I12
aI8
aI10
aI12
atp5225
a(((lp5226
I9
aI0
aI7
aI2
aI0
aI8
aI16
aI10
aI4
aI15
at(lp5227
I7
aI2
aI0
aI8
atp5228
a(((lp5229
I14
aI2
aI14
aI3
aI0
aI9
aI10
aI11
aI2
aI7
aI12
aI1
aI5
aI15
aI2
at(lp5230
I14
aI3
aI0
aI9
atp5231
a(((lp5232
I1
aI4
aI12
aI3
aI2
aI3
aI15
aI10
aI12
aI10
aI16
aI11
at(lp5233
I12
aI3
aI2
aI3
atp5234
a(((lp5235
I1
aI10
aI14
aI14
aI6
aI13
aI10
aI10
aI8
aI0
aI0
aI16
aI16
aI14
at(lp5236
I14
aI14
aI6
aI13
atp5237
a(((lp5238
I5
aI14
aI10
aI2
aI2
aI3
aI3
aI14
aI4
aI15
at(lp5239
I10
aI2
aI2
aI3
atp5240
a(((lp5241
I6
aI16
aI1
aI0
aI7
aI5
aI15
aI5
aI2
aI7
aI9
aI0
aI14
aI16
at(lp5242
I1
aI0
aI7
aI5
atp5243
a(((lp5244
I2
aI15
aI0
aI10
aI0
aI5
aI2
aI5
aI12
aI10
aI12
aI4
at(lp5245
I0
aI10
aI0
aI5
atp5246
a(((lp5247
I5
aI11
aI15
aI14
aI13
aI13
aI0
aI6
aI10
aI9
aI0
aI10
at(lp5248
I15
aI14
aI13
aI13
atp5249
a(((lp5250
I11
aI2
aI12
aI3
aI1
aI0
aI7
aI14
aI8
aI6
aI1
aI15
at(lp5251
I12
aI3
aI1
aI0
atp5252
a(((lp5253
I11
aI11
aI9
aI3
aI2
aI8
aI3
aI13
aI2
aI14
at(lp5254
I9
aI3
aI2
aI8
atp5255
asg40
I00
sg41
g2
(g42
g4
NtRp5256
(dp5257
g45
I00
sg46
g47
sg48
(lp5258
g2
(g42
g4
NtRp5259
(dp5260
g45
I00
sg46
g52
sg48
(lp5261
g54
asbag2
(g42
g4
NtRp5262
(dp5263
g45
I00
sg46
g52
sg48
(lp5264
g54
asbasbsg61
(lp5265
I102
aF5.9510989010989004
aF-9.2934065934065941
aF-3175.7454212454209
aI1
asg46
Vslice-k-n with k=3 and n=4
p5266
sbag2
(g3
g4
NtRp5267
(dp5268
g7
(lp5269
(((lp5270
I2
aI0
aI4
at(lp5271
I0
aI2
aI4
atp5272
a(((lp5273
I2
aI5
aI4
aI2
aI0
aI5
aI1
aI1
at(lp5274
I0
aI1
aI1
aI2
aI2
aI4
aI5
aI5
atp5275
a(((lp5276
I13
at(lp5277
I13
atp5278
a(((lp5279
I12
aI5
at(lp5280
I5
aI12
atp5281
a(((lp5282
I1
at(lp5283
I1
atp5284
a(((lp5285
I10
aI9
at(lp5286
I9
aI10
atp5287
a(((lp5288
I7
at(lp5289
I7
atp5290
a(((lp5291
I12
aI1
aI10
at(lp5292
I1
aI10
aI12
atp5293
a(((lp5294
I10
aI7
aI9
at(lp5295
I7
aI9
aI10
atp5296
a(((lp5297
I16
aI2
aI4
aI11
aI2
at(lp5298
I2
aI2
aI4
aI11
aI16
atp5299
a(((lp5300
I8
at(lp5301
I8
atp5302
a(((lp5303
I5
aI5
aI0
at(lp5304
I0
aI5
aI5
atp5305
a(((lp5306
I3
aI5
at(lp5307
I3
aI5
atp5308
asg40
I00
sg41
g2
(g42
g4
NtRp5309
(dp5310
g45
I00
sg46
g47
sg48
(lp5311
g2
(g42
g4
NtRp5312
(dp5313
g45
I00
sg46
g52
sg48
(lp5314
g54
asbag2
(g42
g4
NtRp5315
(dp5316
g45
I00
sg46
g52
sg48
(lp5317
g54
asbasbsg61
(lp5318
I0
aF0
aF0
aF0
aI1
asg46
Vsort
p5319
sbag2
(g3
g4
NtRp5320
(dp5321
g7
(lp5322
(((lp5323
I1
aI2
aI3
atI6
tp5324
a(((lp5325
I0
atI0
tp5326
a(((lp5327
I1
aI1
aI2
aI1
atI5
tp5328
a(((lp5329
I13
atI13
tp5330
a(((lp5331
I1
aI11
aI14
aI8
aI10
atI44
tp5332
a(((lp5333
I4
aI0
aI5
aI13
atI22
tp5334
a(((lp5335
I7
aI12
aI15
aI6
atI40
tp5336
a(((lp5337
I7
atI7
tp5338
a(((lp5339
I7
aI12
atI19
tp5340
a(((lp5341
I11
atI11
tp5342
a(((lp5343
I3
aI8
aI12
aI4
aI8
aI1
atI36
tp5344
a(((lp5345
I4
atI4
tp5346
a(((lp5347
I6
aI6
aI9
aI3
aI11
aI10
aI2
atI47
tp5348
asg40
I00
sg41
g2
(g42
g4
NtRp5349
(dp5350
g45
I00
sg46
g47
sg48
(lp5351
g2
(g42
g4
NtRp5352
(dp5353
g45
I00
sg46
g52
sg48
(lp5354
g54
asbag54
asbsg61
(lp5355
I40
aF7.1904761904761898
aF169.23571428571427
aF406.47857142857146
aI0
asg46
Vsum
p5356
sbag2
(g3
g4
NtRp5357
(dp5358
g7
(lp5359
(((lp5360
I5
aI9
aI1
at(lp5361
I9
aI1
atp5362
a(((lp5363
I12
aI4
at(lp5364
I4
atp5365
a(((lp5366
I2
aI3
aI6
aI7
at(lp5367
I3
aI6
aI7
atp5368
a(((lp5369
I7
aI1
aI2
aI13
aI3
at(lp5370
I1
aI2
aI13
aI3
atp5371
a(((lp5372
I9
aI11
aI2
at(lp5373
I11
aI2
atp5374
a(((lp5375
I7
aI11
aI15
aI9
aI12
aI15
at(lp5376
I11
aI15
aI9
aI12
aI15
atp5377
a(((lp5378
I14
aI0
at(lp5379
I0
atp5380
a(((lp5381
I8
aI7
at(lp5382
I7
atp5383
a(((lp5384
I10
aI9
aI5
aI13
aI1
aI2
aI9
at(lp5385
I9
aI5
aI13
aI1
aI2
aI9
atp5386
a(((lp5387
I2
aI6
aI12
at(lp5388
I6
aI12
atp5389
a(((lp5390
I14
aI8
aI8
aI8
aI0
aI13
at(lp5391
I8
aI8
aI8
aI0
aI13
atp5392
a(((lp5393
I13
aI3
aI16
aI7
at(lp5394
I3
aI16
aI7
atp5395
a(((lp5396
I0
at(ltp5397
asg40
I00
sg41
g2
(g42
g4
NtRp5398
(dp5399
g45
I00
sg46
g47
sg48
(lp5400
g2
(g42
g4
NtRp5401
(dp5402
g45
I00
sg46
g52
sg48
(lp5403
g54
asbag2
(g42
g4
NtRp5404
(dp5405
g45
I00
sg46
g52
sg48
(lp5406
g54
asbasbsg61
(lp5407
I13
aF4.6761904761904756
aF-11.400000000000002
aF-264.90000000000009
aI1
asg46
Vtail
p5408
sbag2
(g3
g4
NtRp5409
(dp5410
g7
(lp5411
(((lp5412
I6
aI2
aI12
aI13
aI15
aI15
aI2
aI14
at(lp5413
I6
aI2
atp5414
a(((lp5415
I5
aI12
aI5
aI13
aI1
at(lp5416
I5
aI12
atp5417
a(((lp5418
I6
aI13
aI6
aI15
aI9
aI7
aI6
aI5
aI14
at(lp5419
I6
aI13
atp5420
a(((lp5421
I7
aI13
aI10
at(lp5422
I7
aI13
atp5423
a(((lp5424
I10
aI1
aI4
aI16
aI6
aI3
at(lp5425
I10
aI1
atp5426
a(((lp5427
I0
aI8
aI1
aI14
aI12
aI7
at(lp5428
I0
aI8
atp5429
a(((lp5430
I16
aI1
aI7
aI2
aI4
aI8
aI8
aI14
at(lp5431
I16
aI1
atp5432
a(((lp5433
I0
aI7
aI11
at(lp5434
I0
aI7
atp5435
a(((lp5436
I10
aI5
aI11
at(lp5437
I10
aI5
atp5438
a(((lp5439
I5
aI2
aI2
aI6
aI15
at(lp5440
I5
aI2
atp5441
a(((lp5442
I14
aI15
aI8
aI12
at(lp5443
I14
aI15
atp5444
a(((lp5445
I14
aI7
aI12
aI2
at(lp5446
I14
aI7
atp5447
a(((lp5448
I3
aI13
at(lp5449
I3
aI13
atp5450
asg40
I00
sg41
g2
(g42
g4
NtRp5451
(dp5452
g45
I00
sg46
g47
sg48
(lp5453
g2
(g42
g4
NtRp5454
(dp5455
g45
I00
sg46
g52
sg48
(lp5456
g54
asbag2
(g42
g4
NtRp5457
(dp5458
g45
I00
sg46
g52
sg48
(lp5459
g54
asbasbsg61
(lp5460
I40
aF5.8138888888888891
aF-9.4083333333333332
aF-966.67499999999995
aI1
asg46
Vtake-k with k=2
p5461
sbag2
(g3
g4
NtRp5462
(dp5463
g7
(lp5464
(((lp5465
I14
aI11
aI11
aI2
aI9
aI13
at(lp5466
I14
aI11
aI11
atp5467
a(((lp5468
I13
aI15
aI7
aI13
aI12
aI10
at(lp5469
I13
aI15
aI7
atp5470
a(((lp5471
I10
aI0
aI16
aI16
aI2
aI6
aI15
at(lp5472
I10
aI0
aI16
atp5473
a(((lp5474
I6
aI1
aI5
aI9
at(lp5475
I6
aI1
aI5
atp5476
a(((lp5477
I0
aI7
aI14
aI16
aI13
aI8
at(lp5478
I0
aI7
aI14
atp5479
a(((lp5480
I8
aI9
aI0
aI14
aI11
aI0
at(lp5481
I8
aI9
aI0
atp5482
a(((lp5483
I12
aI2
aI11
aI7
aI13
at(lp5484
I12
aI2
aI11
atp5485
a(((lp5486
I0
aI5
aI8
aI8
aI8
aI11
aI9
aI8
aI14
at(lp5487
I0
aI5
aI8
atp5488
a(((lp5489
I6
aI10
aI5
aI3
aI6
aI7
aI15
aI11
at(lp5490
I6
aI10
aI5
atp5491
a(((lp5492
I1
aI12
aI7
aI11
aI11
aI7
aI0
aI12
aI11
at(lp5493
I1
aI12
aI7
atp5494
a(((lp5495
I10
aI0
aI6
at(lp5496
I10
aI0
aI6
atp5497
a(((lp5498
I12
aI7
aI7
aI6
aI4
aI8
aI10
aI8
at(lp5499
I12
aI7
aI7
atp5500
a(((lp5501
I5
aI8
aI13
aI7
aI15
aI10
aI3
aI5
aI10
at(lp5502
I5
aI8
aI13
atp5503
asg40
I00
sg41
g2
(g42
g4
NtRp5504
(dp5505
g45
I00
sg46
g47
sg48
(lp5506
g2
(g42
g4
NtRp5507
(dp5508
g45
I00
sg46
g52
sg48
(lp5509
g54
asbag2
(g42
g4
NtRp5510
(dp5511
g45
I00
sg46
g52
sg48
(lp5512
g54
asbasbsg61
(lp5513
I47
aF4.7452380952380953
aF-9.1607142857142865
aF-874.99801587301602
aI1
asg46
Vtake-k with k=3
p5514
sbag2
(g3
g4
NtRp5515
(dp5516
g7
(lp5517
(((lp5518
I11
aI13
aI7
aI13
aI8
aI1
aI9
aI3
aI8
aI4
aI8
at(lp5519
I11
aI13
aI7
aI13
aI8
atp5520
a(((lp5521
I5
aI5
aI16
aI3
aI8
aI2
aI4
aI9
aI12
aI1
aI14
aI6
at(lp5522
I5
aI5
aI16
aI3
aI8
atp5523
a(((lp5524
I14
aI1
aI12
aI3
aI15
aI8
aI0
aI3
aI7
aI3
aI9
aI3
at(lp5525
I14
aI1
aI12
aI3
aI15
atp5526
a(((lp5527
I7
aI14
aI6
aI15
aI0
aI12
aI13
at(lp5528
I7
aI14
aI6
aI15
aI0
atp5529
a(((lp5530
I11
aI6
aI7
aI5
aI2
aI0
aI4
aI16
aI7
at(lp5531
I11
aI6
aI7
aI5
aI2
atp5532
a(((lp5533
I12
aI11
aI12
aI15
aI12
aI4
at(lp5534
I12
aI11
aI12
aI15
aI12
atp5535
a(((lp5536
I13
aI15
aI3
aI2
aI1
aI16
aI1
at(lp5537
I13
aI15
aI3
aI2
aI1
atp5538
a(((lp5539
I0
aI2
aI16
aI9
aI0
at(lp5540
I0
aI2
aI16
aI9
aI0
atp5541
a(((lp5542
I6
aI0
aI16
aI9
aI4
aI9
aI0
aI8
aI6
at(lp5543
I6
aI0
aI16
aI9
aI4
atp5544
a(((lp5545
I15
aI14
aI9
aI11
aI6
aI2
aI2
aI9
aI3
aI6
aI10
aI2
at(lp5546
I15
aI14
aI9
aI11
aI6
atp5547
a(((lp5548
I3
aI4
aI9
aI16
aI3
aI5
aI16
aI16
at(lp5549
I3
aI4
aI9
aI16
aI3
atp5550
a(((lp5551
I11
aI4
aI11
aI0
aI4
aI9
aI3
aI9
aI2
aI15
at(lp5552
I11
aI4
aI11
aI0
aI4
atp5553
a(((lp5554
I12
aI8
aI15
aI10
aI7
aI5
aI4
aI0
at(lp5555
I12
aI8
aI15
aI10
aI7
atp5556
asg40
I00
sg41
g2
(g42
g4
NtRp5557
(dp5558
g45
I00
sg46
g47
sg48
(lp5559
g2
(g42
g4
NtRp5560
(dp5561
g45
I00
sg46
g52
sg48
(lp5562
g54
asbag2
(g42
g4
NtRp5563
(dp5564
g45
I00
sg46
g52
sg48
(lp5565
g54
asbasbsg61
(lp5566
I51
aF3.4699855699855697
aF9.1016955266955293
aF-1330.477453102453
aI1
asg46
Vtake-k with k=5
p5567
sbag2
(g3
g4
NtRp5568
(dp5569
g7
(lp5570
(((lp5571
I1
aI1
aI1
at(lp5572
I1
atp5573
a(((lp5574
I2
aI5
aI4
aI2
aI2
aI0
aI5
aI1
aI1
at(lp5575
I2
aI5
aI4
aI0
aI1
atp5576
a(((lp5577
I14
at(lp5578
I14
atp5579
a(((lt(ltp5580
a(((lp5581
I7
aI6
aI11
aI6
aI12
at(lp5582
I7
aI6
aI11
aI12
atp5583
a(((lp5584
I3
at(lp5585
I3
atp5586
a(((lp5587
I6
aI2
at(lp5588
I6
aI2
atp5589
a(((lp5590
I6
aI9
aI15
aI16
at(lp5591
I6
aI9
aI15
aI16
atp5592
a(((lt(ltp5593
a(((lp5594
I1
aI7
aI13
aI3
aI6
aI0
aI10
at(lp5595
I1
aI7
aI13
aI3
aI6
aI0
aI10
atp5596
a(((lp5597
I14
aI11
at(lp5598
I14
aI11
atp5599
a(((lp5600
I13
at(lp5601
I13
atp5602
a(((lp5603
I14
aI7
aI9
aI8
at(lp5604
I14
aI7
aI9
aI8
atp5605
asg40
I00
sg41
g2
(g42
g4
NtRp5606
(dp5607
g45
I00
sg46
g47
sg48
(lp5608
g2
(g42
g4
NtRp5609
(dp5610
g45
I00
sg46
g52
sg48
(lp5611
g54
asbag2
(g42
g4
NtRp5612
(dp5613
g45
I00
sg46
g52
sg48
(lp5614
g54
asbasbsg61
(lp5615
I7
aF0
aF0.55555555555555491
aF-16.222222222222229
aI1
asg46
Vuniq
p5616
sba.